   1                             		.file	"interrupt_handlers.c"
   2                             		.section P,"ax"
   3                             	.Ltext0:
   4                             		.global	_INT_Excep_SuperVisorInst
   6                             	_INT_Excep_SuperVisorInst:
   7                             	.LFB0:
   8                             		.file 1 "../src/interrupt_handlers.c"
   1:../src/interrupt_handlers.c **** /***************************************************************/
   2:../src/interrupt_handlers.c **** /*                                                             */
   3:../src/interrupt_handlers.c **** /*      PROJECT NAME :  rxserial_test                          */
   4:../src/interrupt_handlers.c **** /*      FILE         :  interrupt_handlers.c                   */
   5:../src/interrupt_handlers.c **** /*      DESCRIPTION  :  Interrupt Handler                      */
   6:../src/interrupt_handlers.c **** /*      CPU SERIES   :  RX600                                  */
   7:../src/interrupt_handlers.c **** /*      CPU TYPE     :  RX621                                  */
   8:../src/interrupt_handlers.c **** /*                                                             */
   9:../src/interrupt_handlers.c **** /*      This file is generated by e2 studio.                   */
  10:../src/interrupt_handlers.c **** /*                                                             */
  11:../src/interrupt_handlers.c **** /***************************************************************/                                
  12:../src/interrupt_handlers.c ****                                                                            
  13:../src/interrupt_handlers.c ****                                                                            
  14:../src/interrupt_handlers.c **** /************************************************************************/
  15:../src/interrupt_handlers.c **** /*    File Version: V1.01                                               */
  16:../src/interrupt_handlers.c **** /*    History: 1.10  (2013-08-19)  [Hardware Manual Revision : 1.30]    */
  17:../src/interrupt_handlers.c **** /*    Date Modified: 09/30/2013                                          */
  18:../src/interrupt_handlers.c **** /************************************************************************/
  19:../src/interrupt_handlers.c **** 
  20:../src/interrupt_handlers.c **** #include "interrupt_handlers.h"
  21:../src/interrupt_handlers.c **** #include "iodefine.h"
  22:../src/interrupt_handlers.c **** #include "rxserial.h"
  23:../src/interrupt_handlers.c **** 
  24:../src/interrupt_handlers.c **** extern volatile char Buf[1024];
  25:../src/interrupt_handlers.c **** extern volatile short Buf_end;
  26:../src/interrupt_handlers.c **** extern volatile short Buf_start;
  27:../src/interrupt_handlers.c **** 
  28:../src/interrupt_handlers.c **** // Exception(Supervisor Instruction)
  29:../src/interrupt_handlers.c **** void INT_Excep_SuperVisorInst(void){/* brk(); */}
   9                             		.loc 1 29 0
  10                             		; Note: Interrupt Handler
  11 0000 7E A6                   		push.l	r6
  12                             	.LCFI0:
  13 0002 EF 06                   		mov.L	r0, r6
  14                             	.LCFI1:
  15                             		.loc 1 29 0
  16 0004 7E B6                   		pop	r6
  17 0006 7F 95                   		rte
  18                             	.LFE0:
  20                             		.global	_INT_Excep_AccessInst
  22                             	_INT_Excep_AccessInst:
  23                             	.LFB1:
  30:../src/interrupt_handlers.c **** 
  31:../src/interrupt_handlers.c **** // Exception(Access Instruction)
  32:../src/interrupt_handlers.c **** void INT_Excep_AccessInst(void){/* brk(); */}
  24                             		.loc 1 32 0
  25                             		; Note: Interrupt Handler
  26 0008 7E A6                   		push.l	r6
  27                             	.LCFI2:
  28 000a EF 06                   		mov.L	r0, r6
  29                             	.LCFI3:
  30                             		.loc 1 32 0
  31 000c 7E B6                   		pop	r6
  32 000e 7F 95                   		rte
  33                             	.LFE1:
  35                             		.global	_INT_Excep_UndefinedInst
  37                             	_INT_Excep_UndefinedInst:
  38                             	.LFB2:
  33:../src/interrupt_handlers.c **** 
  34:../src/interrupt_handlers.c **** // Exception(Undefined Instruction)
  35:../src/interrupt_handlers.c **** void INT_Excep_UndefinedInst(void){/* brk(); */}
  39                             		.loc 1 35 0
  40                             		; Note: Interrupt Handler
  41 0010 7E A6                   		push.l	r6
  42                             	.LCFI4:
  43 0012 EF 06                   		mov.L	r0, r6
  44                             	.LCFI5:
  45                             		.loc 1 35 0
  46 0014 7E B6                   		pop	r6
  47 0016 7F 95                   		rte
  48                             	.LFE2:
  50                             		.global	_INT_Excep_FloatingPoint
  52                             	_INT_Excep_FloatingPoint:
  53                             	.LFB3:
  36:../src/interrupt_handlers.c **** 
  37:../src/interrupt_handlers.c **** // Exception(Floating Point)
  38:../src/interrupt_handlers.c **** void INT_Excep_FloatingPoint(void){/* brk(); */}
  54                             		.loc 1 38 0
  55                             		; Note: Interrupt Handler
  56 0018 7E A6                   		push.l	r6
  57                             	.LCFI6:
  58 001a EF 06                   		mov.L	r0, r6
  59                             	.LCFI7:
  60                             		.loc 1 38 0
  61 001c 7E B6                   		pop	r6
  62 001e 7F 95                   		rte
  63                             	.LFE3:
  65                             		.global	_INT_NonMaskableInterrupt
  67                             	_INT_NonMaskableInterrupt:
  68                             	.LFB4:
  39:../src/interrupt_handlers.c **** 
  40:../src/interrupt_handlers.c **** // NMI
  41:../src/interrupt_handlers.c **** void INT_NonMaskableInterrupt(void){/* brk(); */}
  69                             		.loc 1 41 0
  70                             		; Note: Interrupt Handler
  71 0020 7E A6                   		push.l	r6
  72                             	.LCFI8:
  73 0022 EF 06                   		mov.L	r0, r6
  74                             	.LCFI9:
  75                             		.loc 1 41 0
  76 0024 7E B6                   		pop	r6
  77 0026 7F 95                   		rte
  78                             	.LFE4:
  80                             		.global	_Dummy
  82                             	_Dummy:
  83                             	.LFB5:
  42:../src/interrupt_handlers.c **** 
  43:../src/interrupt_handlers.c **** // Dummy
  44:../src/interrupt_handlers.c **** void Dummy(void){/* brk(); */}
  84                             		.loc 1 44 0
  85                             		; Note: Interrupt Handler
  86 0028 7E A6                   		push.l	r6
  87                             	.LCFI10:
  88 002a EF 06                   		mov.L	r0, r6
  89                             	.LCFI11:
  90                             		.loc 1 44 0
  91 002c 7E B6                   		pop	r6
  92 002e 7F 95                   		rte
  93                             	.LFE5:
  95                             		.global	_INT_Excep_BRK
  97                             	_INT_Excep_BRK:
  98                             	.LFB6:
  45:../src/interrupt_handlers.c **** 
  46:../src/interrupt_handlers.c **** // BRK
  47:../src/interrupt_handlers.c **** void INT_Excep_BRK(void){/* wait(); */}
  99                             		.loc 1 47 0
 100                             		; Note: Interrupt Handler
 101 0030 7E A6                   		push.l	r6
 102                             	.LCFI12:
 103 0032 EF 06                   		mov.L	r0, r6
 104                             	.LCFI13:
 105                             		.loc 1 47 0
 106 0034 7E B6                   		pop	r6
 107 0036 7F 95                   		rte
 108                             	.LFE6:
 110                             		.global	_INT_Excep_BSC_BUSERR
 112                             	_INT_Excep_BSC_BUSERR:
 113                             	.LFB7:
  48:../src/interrupt_handlers.c **** //;0x0000  Reserved
  49:../src/interrupt_handlers.c ****     
  50:../src/interrupt_handlers.c **** //;0x0004  Reserved
  51:../src/interrupt_handlers.c ****     
  52:../src/interrupt_handlers.c **** //;0x0008  Reserved
  53:../src/interrupt_handlers.c ****     
  54:../src/interrupt_handlers.c **** //;0x000C  Reserved
  55:../src/interrupt_handlers.c ****     
  56:../src/interrupt_handlers.c **** //;0x0010  Reserved
  57:../src/interrupt_handlers.c ****     
  58:../src/interrupt_handlers.c **** //;0x0014  Reserved
  59:../src/interrupt_handlers.c ****     
  60:../src/interrupt_handlers.c **** //;0x0018  Reserved
  61:../src/interrupt_handlers.c ****     
  62:../src/interrupt_handlers.c **** //;0x001C  Reserved
  63:../src/interrupt_handlers.c ****     
  64:../src/interrupt_handlers.c **** //;0x0020  Reserved
  65:../src/interrupt_handlers.c ****     
  66:../src/interrupt_handlers.c **** //;0x0024  Reserved
  67:../src/interrupt_handlers.c ****     
  68:../src/interrupt_handlers.c **** //;0x0028  Reserved
  69:../src/interrupt_handlers.c ****     
  70:../src/interrupt_handlers.c **** //;0x002C  Reserved
  71:../src/interrupt_handlers.c ****     
  72:../src/interrupt_handlers.c **** //;0x0030  Reserved
  73:../src/interrupt_handlers.c ****     
  74:../src/interrupt_handlers.c **** //;0x0034  Reserved
  75:../src/interrupt_handlers.c ****     
  76:../src/interrupt_handlers.c **** //;0x0038  Reserved
  77:../src/interrupt_handlers.c ****     
  78:../src/interrupt_handlers.c **** //;0x003C  Reserved
  79:../src/interrupt_handlers.c ****     
  80:../src/interrupt_handlers.c **** //;0x0040  BUSERR
  81:../src/interrupt_handlers.c **** void  INT_Excep_BSC_BUSERR(void){ }
 114                             		.loc 1 81 0
 115                             		; Note: Interrupt Handler
 116 0038 7E A6                   		push.l	r6
 117                             	.LCFI14:
 118 003a EF 06                   		mov.L	r0, r6
 119                             	.LCFI15:
 120                             		.loc 1 81 0
 121 003c 7E B6                   		pop	r6
 122 003e 7F 95                   		rte
 123                             	.LFE7:
 125                             		.global	_INT_Excep_FCU_FIFERR
 127                             	_INT_Excep_FCU_FIFERR:
 128                             	.LFB8:
  82:../src/interrupt_handlers.c **** //;0x0044  Reserved
  83:../src/interrupt_handlers.c ****     
  84:../src/interrupt_handlers.c **** //;0x0048  Reserved
  85:../src/interrupt_handlers.c ****     
  86:../src/interrupt_handlers.c **** //;0x004C  Reserved
  87:../src/interrupt_handlers.c ****     
  88:../src/interrupt_handlers.c **** //;0x0050  Reserved
  89:../src/interrupt_handlers.c ****     
  90:../src/interrupt_handlers.c **** //;0x0054 FIFERR
  91:../src/interrupt_handlers.c **** void  INT_Excep_FCU_FIFERR(void){ }
 129                             		.loc 1 91 0
 130                             		; Note: Interrupt Handler
 131 0040 7E A6                   		push.l	r6
 132                             	.LCFI16:
 133 0042 EF 06                   		mov.L	r0, r6
 134                             	.LCFI17:
 135                             		.loc 1 91 0
 136 0044 7E B6                   		pop	r6
 137 0046 7F 95                   		rte
 138                             	.LFE8:
 140                             		.global	_INT_Excep_FCU_FRDYI
 142                             	_INT_Excep_FCU_FRDYI:
 143                             	.LFB9:
  92:../src/interrupt_handlers.c **** 
  93:../src/interrupt_handlers.c **** //;0x0058  Reserved
  94:../src/interrupt_handlers.c ****     
  95:../src/interrupt_handlers.c **** //;0x005C  FRDYI
  96:../src/interrupt_handlers.c **** void  INT_Excep_FCU_FRDYI(void){ }  
 144                             		.loc 1 96 0
 145                             		; Note: Interrupt Handler
 146 0048 7E A6                   		push.l	r6
 147                             	.LCFI18:
 148 004a EF 06                   		mov.L	r0, r6
 149                             	.LCFI19:
 150                             		.loc 1 96 0
 151 004c 7E B6                   		pop	r6
 152 004e 7F 95                   		rte
 153                             	.LFE9:
 155                             		.global	_INT_Excep_ICU_SWINT
 157                             	_INT_Excep_ICU_SWINT:
 158                             	.LFB10:
  97:../src/interrupt_handlers.c **** 
  98:../src/interrupt_handlers.c **** //;0x0060  Reserved
  99:../src/interrupt_handlers.c ****     
 100:../src/interrupt_handlers.c **** //;0x0064  Reserved
 101:../src/interrupt_handlers.c ****     
 102:../src/interrupt_handlers.c **** //;0x0068  Reserved
 103:../src/interrupt_handlers.c ****     
 104:../src/interrupt_handlers.c **** //;0x006C  SWINT
 105:../src/interrupt_handlers.c **** void  INT_Excep_ICU_SWINT(void){ }
 159                             		.loc 1 105 0
 160                             		; Note: Interrupt Handler
 161 0050 7E A6                   		push.l	r6
 162                             	.LCFI20:
 163 0052 EF 06                   		mov.L	r0, r6
 164                             	.LCFI21:
 165                             		.loc 1 105 0
 166 0054 7E B6                   		pop	r6
 167 0056 7F 95                   		rte
 168                             	.LFE10:
 170                             		.global	_INT_Excep_CMT0_CMI0
 172                             	_INT_Excep_CMT0_CMI0:
 173                             	.LFB11:
 106:../src/interrupt_handlers.c **** 
 107:../src/interrupt_handlers.c **** //;0x0070  CMTU0_CMT0
 108:../src/interrupt_handlers.c **** void  INT_Excep_CMT0_CMI0(void){ }
 174                             		.loc 1 108 0
 175                             		; Note: Interrupt Handler
 176 0058 7E A6                   		push.l	r6
 177                             	.LCFI22:
 178 005a EF 06                   		mov.L	r0, r6
 179                             	.LCFI23:
 180                             		.loc 1 108 0
 181 005c 7E B6                   		pop	r6
 182 005e 7F 95                   		rte
 183                             	.LFE11:
 185                             		.global	_INT_Excep_CMT1_CMI1
 187                             	_INT_Excep_CMT1_CMI1:
 188                             	.LFB12:
 109:../src/interrupt_handlers.c **** //;0x0074  CMTU0_CMT1
 110:../src/interrupt_handlers.c **** void  INT_Excep_CMT1_CMI1(void){ }
 189                             		.loc 1 110 0
 190                             		; Note: Interrupt Handler
 191 0060 7E A6                   		push.l	r6
 192                             	.LCFI24:
 193 0062 EF 06                   		mov.L	r0, r6
 194                             	.LCFI25:
 195                             		.loc 1 110 0
 196 0064 7E B6                   		pop	r6
 197 0066 7F 95                   		rte
 198                             	.LFE12:
 200                             		.global	_INT_Excep_CMT2_CMI2
 202                             	_INT_Excep_CMT2_CMI2:
 203                             	.LFB13:
 111:../src/interrupt_handlers.c **** //;0x0078  CMTU1_CMT2
 112:../src/interrupt_handlers.c **** void  INT_Excep_CMT2_CMI2(void){ }
 204                             		.loc 1 112 0
 205                             		; Note: Interrupt Handler
 206 0068 7E A6                   		push.l	r6
 207                             	.LCFI26:
 208 006a EF 06                   		mov.L	r0, r6
 209                             	.LCFI27:
 210                             		.loc 1 112 0
 211 006c 7E B6                   		pop	r6
 212 006e 7F 95                   		rte
 213                             	.LFE13:
 215                             		.global	_INT_Excep_CMT3_CMI3
 217                             	_INT_Excep_CMT3_CMI3:
 218                             	.LFB14:
 113:../src/interrupt_handlers.c **** //;0x007C  CMTU1_CMT3
 114:../src/interrupt_handlers.c **** void  INT_Excep_CMT3_CMI3(void){ }
 219                             		.loc 1 114 0
 220                             		; Note: Interrupt Handler
 221 0070 7E A6                   		push.l	r6
 222                             	.LCFI28:
 223 0072 EF 06                   		mov.L	r0, r6
 224                             	.LCFI29:
 225                             		.loc 1 114 0
 226 0074 7E B6                   		pop	r6
 227 0076 7F 95                   		rte
 228                             	.LFE14:
 230                             		.global	_INT_Excep_ETHER_EINT
 232                             	_INT_Excep_ETHER_EINT:
 233                             	.LFB15:
 115:../src/interrupt_handlers.c **** 
 116:../src/interrupt_handlers.c **** //;0x0080  EINT
 117:../src/interrupt_handlers.c **** void  INT_Excep_ETHER_EINT(void){ }    
 234                             		.loc 1 117 0
 235                             		; Note: Interrupt Handler
 236 0078 7E A6                   		push.l	r6
 237                             	.LCFI30:
 238 007a EF 06                   		mov.L	r0, r6
 239                             	.LCFI31:
 240                             		.loc 1 117 0
 241 007c 7E B6                   		pop	r6
 242 007e 7F 95                   		rte
 243                             	.LFE15:
 245                             		.global	_INT_Excep_USB0_D0FIFO0
 247                             	_INT_Excep_USB0_D0FIFO0:
 248                             	.LFB16:
 118:../src/interrupt_handlers.c **** 
 119:../src/interrupt_handlers.c **** //;0x0084  Reserved
 120:../src/interrupt_handlers.c **** 
 121:../src/interrupt_handlers.c **** //;0x0088  Reserved
 122:../src/interrupt_handlers.c ****     
 123:../src/interrupt_handlers.c **** //;0x008C  Reserved
 124:../src/interrupt_handlers.c ****     
 125:../src/interrupt_handlers.c **** //;0x0090  USB0_D0FIFO0
 126:../src/interrupt_handlers.c **** void  INT_Excep_USB0_D0FIFO0(void){ }
 249                             		.loc 1 126 0
 250                             		; Note: Interrupt Handler
 251 0080 7E A6                   		push.l	r6
 252                             	.LCFI32:
 253 0082 EF 06                   		mov.L	r0, r6
 254                             	.LCFI33:
 255                             		.loc 1 126 0
 256 0084 7E B6                   		pop	r6
 257 0086 7F 95                   		rte
 258                             	.LFE16:
 260                             		.global	_INT_Excep_USB0_D1FIFO0
 262                             	_INT_Excep_USB0_D1FIFO0:
 263                             	.LFB17:
 127:../src/interrupt_handlers.c ****     
 128:../src/interrupt_handlers.c **** //;0x0094  USB0_D1FIFO0
 129:../src/interrupt_handlers.c **** void  INT_Excep_USB0_D1FIFO0(void){ }
 264                             		.loc 1 129 0
 265                             		; Note: Interrupt Handler
 266 0088 7E A6                   		push.l	r6
 267                             	.LCFI34:
 268 008a EF 06                   		mov.L	r0, r6
 269                             	.LCFI35:
 270                             		.loc 1 129 0
 271 008c 7E B6                   		pop	r6
 272 008e 7F 95                   		rte
 273                             	.LFE17:
 275                             		.global	_INT_Excep_USB0_USBI0
 277                             	_INT_Excep_USB0_USBI0:
 278                             	.LFB18:
 130:../src/interrupt_handlers.c **** 
 131:../src/interrupt_handlers.c **** //;0x0098  USB0_USBI0
 132:../src/interrupt_handlers.c **** void  INT_Excep_USB0_USBI0(void){ }
 279                             		.loc 1 132 0
 280                             		; Note: Interrupt Handler
 281 0090 7E A6                   		push.l	r6
 282                             	.LCFI36:
 283 0092 EF 06                   		mov.L	r0, r6
 284                             	.LCFI37:
 285                             		.loc 1 132 0
 286 0094 7E B6                   		pop	r6
 287 0096 7F 95                   		rte
 288                             	.LFE18:
 290                             		.global	_INT_Excep_USB1_D0FIFO1
 292                             	_INT_Excep_USB1_D0FIFO1:
 293                             	.LFB19:
 133:../src/interrupt_handlers.c **** 
 134:../src/interrupt_handlers.c **** //;0x009C  Reserved
 135:../src/interrupt_handlers.c ****     
 136:../src/interrupt_handlers.c **** //;0x00A0  USB1_D0FIFO1
 137:../src/interrupt_handlers.c **** void  INT_Excep_USB1_D0FIFO1(void){ }
 294                             		.loc 1 137 0
 295                             		; Note: Interrupt Handler
 296 0098 7E A6                   		push.l	r6
 297                             	.LCFI38:
 298 009a EF 06                   		mov.L	r0, r6
 299                             	.LCFI39:
 300                             		.loc 1 137 0
 301 009c 7E B6                   		pop	r6
 302 009e 7F 95                   		rte
 303                             	.LFE19:
 305                             		.global	_INT_Excep_USB1_D1FIFO1
 307                             	_INT_Excep_USB1_D1FIFO1:
 308                             	.LFB20:
 138:../src/interrupt_handlers.c ****     
 139:../src/interrupt_handlers.c **** //;0x00A4  USB1_D1FIFO1
 140:../src/interrupt_handlers.c **** void  INT_Excep_USB1_D1FIFO1(void){ }
 309                             		.loc 1 140 0
 310                             		; Note: Interrupt Handler
 311 00a0 7E A6                   		push.l	r6
 312                             	.LCFI40:
 313 00a2 EF 06                   		mov.L	r0, r6
 314                             	.LCFI41:
 315                             		.loc 1 140 0
 316 00a4 7E B6                   		pop	r6
 317 00a6 7F 95                   		rte
 318                             	.LFE20:
 320                             		.global	_INT_Excep_USB1_USBI1
 322                             	_INT_Excep_USB1_USBI1:
 323                             	.LFB21:
 141:../src/interrupt_handlers.c **** 
 142:../src/interrupt_handlers.c **** //;0x00A8  USB1_USBI1
 143:../src/interrupt_handlers.c **** void  INT_Excep_USB1_USBI1(void){ }    
 324                             		.loc 1 143 0
 325                             		; Note: Interrupt Handler
 326 00a8 7E A6                   		push.l	r6
 327                             	.LCFI42:
 328 00aa EF 06                   		mov.L	r0, r6
 329                             	.LCFI43:
 330                             		.loc 1 143 0
 331 00ac 7E B6                   		pop	r6
 332 00ae 7F 95                   		rte
 333                             	.LFE21:
 335                             		.global	_INT_Excep_RSPI0_SPEI0
 337                             	_INT_Excep_RSPI0_SPEI0:
 338                             	.LFB22:
 144:../src/interrupt_handlers.c **** 
 145:../src/interrupt_handlers.c **** //;0x00AC  Reserved
 146:../src/interrupt_handlers.c ****                             
 147:../src/interrupt_handlers.c **** //;0x00B0  RSPI0_SPEI0
 148:../src/interrupt_handlers.c **** void  INT_Excep_RSPI0_SPEI0(void){ }
 339                             		.loc 1 148 0
 340                             		; Note: Interrupt Handler
 341 00b0 7E A6                   		push.l	r6
 342                             	.LCFI44:
 343 00b2 EF 06                   		mov.L	r0, r6
 344                             	.LCFI45:
 345                             		.loc 1 148 0
 346 00b4 7E B6                   		pop	r6
 347 00b6 7F 95                   		rte
 348                             	.LFE22:
 350                             		.global	_INT_Excep_RSPI0_SPRI0
 352                             	_INT_Excep_RSPI0_SPRI0:
 353                             	.LFB23:
 149:../src/interrupt_handlers.c **** 
 150:../src/interrupt_handlers.c **** //;0x00B4  RSPI0_SPRI0
 151:../src/interrupt_handlers.c **** void  INT_Excep_RSPI0_SPRI0(void){ }
 354                             		.loc 1 151 0
 355                             		; Note: Interrupt Handler
 356 00b8 7E A6                   		push.l	r6
 357                             	.LCFI46:
 358 00ba EF 06                   		mov.L	r0, r6
 359                             	.LCFI47:
 360                             		.loc 1 151 0
 361 00bc 7E B6                   		pop	r6
 362 00be 7F 95                   		rte
 363                             	.LFE23:
 365                             		.global	_INT_Excep_RSPI0_SPTI0
 367                             	_INT_Excep_RSPI0_SPTI0:
 368                             	.LFB24:
 152:../src/interrupt_handlers.c **** 
 153:../src/interrupt_handlers.c **** //;0x00B8  RSPI0_SPTI0
 154:../src/interrupt_handlers.c **** void  INT_Excep_RSPI0_SPTI0(void){ }
 369                             		.loc 1 154 0
 370                             		; Note: Interrupt Handler
 371 00c0 7E A6                   		push.l	r6
 372                             	.LCFI48:
 373 00c2 EF 06                   		mov.L	r0, r6
 374                             	.LCFI49:
 375                             		.loc 1 154 0
 376 00c4 7E B6                   		pop	r6
 377 00c6 7F 95                   		rte
 378                             	.LFE24:
 380                             		.global	_INT_Excep_RSPI0_SPII0
 382                             	_INT_Excep_RSPI0_SPII0:
 383                             	.LFB25:
 155:../src/interrupt_handlers.c **** 
 156:../src/interrupt_handlers.c **** //;0x00BC  RSPI0_SPII0
 157:../src/interrupt_handlers.c **** void  INT_Excep_RSPI0_SPII0(void){ }
 384                             		.loc 1 157 0
 385                             		; Note: Interrupt Handler
 386 00c8 7E A6                   		push.l	r6
 387                             	.LCFI50:
 388 00ca EF 06                   		mov.L	r0, r6
 389                             	.LCFI51:
 390                             		.loc 1 157 0
 391 00cc 7E B6                   		pop	r6
 392 00ce 7F 95                   		rte
 393                             	.LFE25:
 395                             		.global	_INT_Excep_RSPI1_SPEI1
 397                             	_INT_Excep_RSPI1_SPEI1:
 398                             	.LFB26:
 158:../src/interrupt_handlers.c **** 
 159:../src/interrupt_handlers.c **** //;0x00C0  RSPI1_SPEI1
 160:../src/interrupt_handlers.c **** void  INT_Excep_RSPI1_SPEI1(void){ }    
 399                             		.loc 1 160 0
 400                             		; Note: Interrupt Handler
 401 00d0 7E A6                   		push.l	r6
 402                             	.LCFI52:
 403 00d2 EF 06                   		mov.L	r0, r6
 404                             	.LCFI53:
 405                             		.loc 1 160 0
 406 00d4 7E B6                   		pop	r6
 407 00d6 7F 95                   		rte
 408                             	.LFE26:
 410                             		.global	_INT_Excep_RSPI1_SPRI1
 412                             	_INT_Excep_RSPI1_SPRI1:
 413                             	.LFB27:
 161:../src/interrupt_handlers.c **** 
 162:../src/interrupt_handlers.c **** //;0x00C4  RSPI1_SPRI1
 163:../src/interrupt_handlers.c **** void  INT_Excep_RSPI1_SPRI1(void){ }
 414                             		.loc 1 163 0
 415                             		; Note: Interrupt Handler
 416 00d8 7E A6                   		push.l	r6
 417                             	.LCFI54:
 418 00da EF 06                   		mov.L	r0, r6
 419                             	.LCFI55:
 420                             		.loc 1 163 0
 421 00dc 7E B6                   		pop	r6
 422 00de 7F 95                   		rte
 423                             	.LFE27:
 425                             		.global	_INT_Excep_RSPI1_SPTI1
 427                             	_INT_Excep_RSPI1_SPTI1:
 428                             	.LFB28:
 164:../src/interrupt_handlers.c **** 
 165:../src/interrupt_handlers.c **** //;0x00C8  RSPI1_SPTI1
 166:../src/interrupt_handlers.c **** void  INT_Excep_RSPI1_SPTI1(void){ } 
 429                             		.loc 1 166 0
 430                             		; Note: Interrupt Handler
 431 00e0 7E A6                   		push.l	r6
 432                             	.LCFI56:
 433 00e2 EF 06                   		mov.L	r0, r6
 434                             	.LCFI57:
 435                             		.loc 1 166 0
 436 00e4 7E B6                   		pop	r6
 437 00e6 7F 95                   		rte
 438                             	.LFE28:
 440                             		.global	_INT_Excep_RSPI1_SPII1
 442                             	_INT_Excep_RSPI1_SPII1:
 443                             	.LFB29:
 167:../src/interrupt_handlers.c **** 
 168:../src/interrupt_handlers.c **** //;0x00CC  RSPI1_SPII1
 169:../src/interrupt_handlers.c **** void  INT_Excep_RSPI1_SPII1(void){ }    
 444                             		.loc 1 169 0
 445                             		; Note: Interrupt Handler
 446 00e8 7E A6                   		push.l	r6
 447                             	.LCFI58:
 448 00ea EF 06                   		mov.L	r0, r6
 449                             	.LCFI59:
 450                             		.loc 1 169 0
 451 00ec 7E B6                   		pop	r6
 452 00ee 7F 95                   		rte
 453                             	.LFE29:
 455                             		.global	_INT_Excep_CAN0_ERS0
 457                             	_INT_Excep_CAN0_ERS0:
 458                             	.LFB30:
 170:../src/interrupt_handlers.c **** 
 171:../src/interrupt_handlers.c **** //;0x00D0  Reserved
 172:../src/interrupt_handlers.c ****     
 173:../src/interrupt_handlers.c **** //;0x00D4  Reserved
 174:../src/interrupt_handlers.c ****     
 175:../src/interrupt_handlers.c **** //;0x00D8  Reserved
 176:../src/interrupt_handlers.c ****     
 177:../src/interrupt_handlers.c **** //;0x00DC  Reserved
 178:../src/interrupt_handlers.c ****     
 179:../src/interrupt_handlers.c **** //;0x00E0  CAN0_ERS0
 180:../src/interrupt_handlers.c **** void  INT_Excep_CAN0_ERS0(void){ }
 459                             		.loc 1 180 0
 460                             		; Note: Interrupt Handler
 461 00f0 7E A6                   		push.l	r6
 462                             	.LCFI60:
 463 00f2 EF 06                   		mov.L	r0, r6
 464                             	.LCFI61:
 465                             		.loc 1 180 0
 466 00f4 7E B6                   		pop	r6
 467 00f6 7F 95                   		rte
 468                             	.LFE30:
 470                             		.global	_INT_Excep_CAN0_RXF0
 472                             	_INT_Excep_CAN0_RXF0:
 473                             	.LFB31:
 181:../src/interrupt_handlers.c **** 
 182:../src/interrupt_handlers.c **** //;0x00E4  CAN0_RXF0
 183:../src/interrupt_handlers.c **** void  INT_Excep_CAN0_RXF0(void){ }
 474                             		.loc 1 183 0
 475                             		; Note: Interrupt Handler
 476 00f8 7E A6                   		push.l	r6
 477                             	.LCFI62:
 478 00fa EF 06                   		mov.L	r0, r6
 479                             	.LCFI63:
 480                             		.loc 1 183 0
 481 00fc 7E B6                   		pop	r6
 482 00fe 7F 95                   		rte
 483                             	.LFE31:
 485                             		.global	_INT_Excep_CAN0_TXF0
 487                             	_INT_Excep_CAN0_TXF0:
 488                             	.LFB32:
 184:../src/interrupt_handlers.c **** 
 185:../src/interrupt_handlers.c **** //;0x00E8  CAN0_TXF0
 186:../src/interrupt_handlers.c **** void  INT_Excep_CAN0_TXF0(void){ }    
 489                             		.loc 1 186 0
 490                             		; Note: Interrupt Handler
 491 0100 7E A6                   		push.l	r6
 492                             	.LCFI64:
 493 0102 EF 06                   		mov.L	r0, r6
 494                             	.LCFI65:
 495                             		.loc 1 186 0
 496 0104 7E B6                   		pop	r6
 497 0106 7F 95                   		rte
 498                             	.LFE32:
 500                             		.global	_INT_Excep_CAN0_RXM0
 502                             	_INT_Excep_CAN0_RXM0:
 503                             	.LFB33:
 187:../src/interrupt_handlers.c **** 
 188:../src/interrupt_handlers.c **** //;0x00EC  CAN0_RXM0
 189:../src/interrupt_handlers.c **** void  INT_Excep_CAN0_RXM0(void){ }
 504                             		.loc 1 189 0
 505                             		; Note: Interrupt Handler
 506 0108 7E A6                   		push.l	r6
 507                             	.LCFI66:
 508 010a EF 06                   		mov.L	r0, r6
 509                             	.LCFI67:
 510                             		.loc 1 189 0
 511 010c 7E B6                   		pop	r6
 512 010e 7F 95                   		rte
 513                             	.LFE33:
 515                             		.global	_INT_Excep_CAN0_TXM0
 517                             	_INT_Excep_CAN0_TXM0:
 518                             	.LFB34:
 190:../src/interrupt_handlers.c **** 
 191:../src/interrupt_handlers.c **** //;0x00F0  CAN0_TXM0
 192:../src/interrupt_handlers.c **** void  INT_Excep_CAN0_TXM0(void){ }
 519                             		.loc 1 192 0
 520                             		; Note: Interrupt Handler
 521 0110 7E A6                   		push.l	r6
 522                             	.LCFI68:
 523 0112 EF 06                   		mov.L	r0, r6
 524                             	.LCFI69:
 525                             		.loc 1 192 0
 526 0114 7E B6                   		pop	r6
 527 0116 7F 95                   		rte
 528                             	.LFE34:
 530                             		.global	_INT_Excep_RTC_PRD
 532                             	_INT_Excep_RTC_PRD:
 533                             	.LFB35:
 193:../src/interrupt_handlers.c **** 
 194:../src/interrupt_handlers.c **** //;0x00F4  Reserved
 195:../src/interrupt_handlers.c ****     
 196:../src/interrupt_handlers.c **** //;0x00F8  RTC_PRD
 197:../src/interrupt_handlers.c **** void  INT_Excep_RTC_PRD(void){ }
 534                             		.loc 1 197 0
 535                             		; Note: Interrupt Handler
 536 0118 7E A6                   		push.l	r6
 537                             	.LCFI70:
 538 011a EF 06                   		mov.L	r0, r6
 539                             	.LCFI71:
 540                             		.loc 1 197 0
 541 011c 7E B6                   		pop	r6
 542 011e 7F 95                   		rte
 543                             	.LFE35:
 545                             		.global	_INT_Excep_RTC_CUP
 547                             	_INT_Excep_RTC_CUP:
 548                             	.LFB36:
 198:../src/interrupt_handlers.c **** 
 199:../src/interrupt_handlers.c **** //;0x00FC  RTC_CUP
 200:../src/interrupt_handlers.c **** void  INT_Excep_RTC_CUP(void){ }
 549                             		.loc 1 200 0
 550                             		; Note: Interrupt Handler
 551 0120 7E A6                   		push.l	r6
 552                             	.LCFI72:
 553 0122 EF 06                   		mov.L	r0, r6
 554                             	.LCFI73:
 555                             		.loc 1 200 0
 556 0124 7E B6                   		pop	r6
 557 0126 7F 95                   		rte
 558                             	.LFE36:
 560                             		.global	_INT_Excep_ICU_IRQ0
 562                             	_INT_Excep_ICU_IRQ0:
 563                             	.LFB37:
 201:../src/interrupt_handlers.c **** 
 202:../src/interrupt_handlers.c **** //;0x0100  IRQ0
 203:../src/interrupt_handlers.c **** void  INT_Excep_ICU_IRQ0(void){ }
 564                             		.loc 1 203 0
 565                             		; Note: Interrupt Handler
 566 0128 7E A6                   		push.l	r6
 567                             	.LCFI74:
 568 012a EF 06                   		mov.L	r0, r6
 569                             	.LCFI75:
 570                             		.loc 1 203 0
 571 012c 7E B6                   		pop	r6
 572 012e 7F 95                   		rte
 573                             	.LFE37:
 575                             		.global	_INT_Excep_ICU_IRQ1
 577                             	_INT_Excep_ICU_IRQ1:
 578                             	.LFB38:
 204:../src/interrupt_handlers.c **** 
 205:../src/interrupt_handlers.c **** //;0x0104 IRQ1
 206:../src/interrupt_handlers.c **** void  INT_Excep_ICU_IRQ1(void){ }
 579                             		.loc 1 206 0
 580                             		; Note: Interrupt Handler
 581 0130 7E A6                   		push.l	r6
 582                             	.LCFI76:
 583 0132 EF 06                   		mov.L	r0, r6
 584                             	.LCFI77:
 585                             		.loc 1 206 0
 586 0134 7E B6                   		pop	r6
 587 0136 7F 95                   		rte
 588                             	.LFE38:
 590                             		.global	_INT_Excep_ICU_IRQ2
 592                             	_INT_Excep_ICU_IRQ2:
 593                             	.LFB39:
 207:../src/interrupt_handlers.c **** 
 208:../src/interrupt_handlers.c **** //;0x0108 IRQ2
 209:../src/interrupt_handlers.c **** void  INT_Excep_ICU_IRQ2(void){ }
 594                             		.loc 1 209 0
 595                             		; Note: Interrupt Handler
 596 0138 7E A6                   		push.l	r6
 597                             	.LCFI78:
 598 013a EF 06                   		mov.L	r0, r6
 599                             	.LCFI79:
 600                             		.loc 1 209 0
 601 013c 7E B6                   		pop	r6
 602 013e 7F 95                   		rte
 603                             	.LFE39:
 605                             		.global	_INT_Excep_ICU_IRQ3
 607                             	_INT_Excep_ICU_IRQ3:
 608                             	.LFB40:
 210:../src/interrupt_handlers.c **** 
 211:../src/interrupt_handlers.c **** //;0x010C IRQ3
 212:../src/interrupt_handlers.c **** void  INT_Excep_ICU_IRQ3(void){ }
 609                             		.loc 1 212 0
 610                             		; Note: Interrupt Handler
 611 0140 7E A6                   		push.l	r6
 612                             	.LCFI80:
 613 0142 EF 06                   		mov.L	r0, r6
 614                             	.LCFI81:
 615                             		.loc 1 212 0
 616 0144 7E B6                   		pop	r6
 617 0146 7F 95                   		rte
 618                             	.LFE40:
 620                             		.global	_INT_Excep_ICU_IRQ4
 622                             	_INT_Excep_ICU_IRQ4:
 623                             	.LFB41:
 213:../src/interrupt_handlers.c **** 
 214:../src/interrupt_handlers.c **** //;0x0110 IRQ4
 215:../src/interrupt_handlers.c **** void  INT_Excep_ICU_IRQ4(void){ }
 624                             		.loc 1 215 0
 625                             		; Note: Interrupt Handler
 626 0148 7E A6                   		push.l	r6
 627                             	.LCFI82:
 628 014a EF 06                   		mov.L	r0, r6
 629                             	.LCFI83:
 630                             		.loc 1 215 0
 631 014c 7E B6                   		pop	r6
 632 014e 7F 95                   		rte
 633                             	.LFE41:
 635                             		.global	_INT_Excep_ICU_IRQ5
 637                             	_INT_Excep_ICU_IRQ5:
 638                             	.LFB42:
 216:../src/interrupt_handlers.c **** 
 217:../src/interrupt_handlers.c **** //;0x0114 IRQ5
 218:../src/interrupt_handlers.c **** void  INT_Excep_ICU_IRQ5(void){ }
 639                             		.loc 1 218 0
 640                             		; Note: Interrupt Handler
 641 0150 7E A6                   		push.l	r6
 642                             	.LCFI84:
 643 0152 EF 06                   		mov.L	r0, r6
 644                             	.LCFI85:
 645                             		.loc 1 218 0
 646 0154 7E B6                   		pop	r6
 647 0156 7F 95                   		rte
 648                             	.LFE42:
 650                             		.global	_INT_Excep_ICU_IRQ6
 652                             	_INT_Excep_ICU_IRQ6:
 653                             	.LFB43:
 219:../src/interrupt_handlers.c **** 
 220:../src/interrupt_handlers.c **** //;0x0118 IRQ6
 221:../src/interrupt_handlers.c **** void  INT_Excep_ICU_IRQ6(void){ }
 654                             		.loc 1 221 0
 655                             		; Note: Interrupt Handler
 656 0158 7E A6                   		push.l	r6
 657                             	.LCFI86:
 658 015a EF 06                   		mov.L	r0, r6
 659                             	.LCFI87:
 660                             		.loc 1 221 0
 661 015c 7E B6                   		pop	r6
 662 015e 7F 95                   		rte
 663                             	.LFE43:
 665                             		.global	_INT_Excep_ICU_IRQ7
 667                             	_INT_Excep_ICU_IRQ7:
 668                             	.LFB44:
 222:../src/interrupt_handlers.c **** 
 223:../src/interrupt_handlers.c **** //;0x011C IRQ7
 224:../src/interrupt_handlers.c **** void  INT_Excep_ICU_IRQ7(void){ }
 669                             		.loc 1 224 0
 670                             		; Note: Interrupt Handler
 671 0160 7E A6                   		push.l	r6
 672                             	.LCFI88:
 673 0162 EF 06                   		mov.L	r0, r6
 674                             	.LCFI89:
 675                             		.loc 1 224 0
 676 0164 7E B6                   		pop	r6
 677 0166 7F 95                   		rte
 678                             	.LFE44:
 680                             		.global	_INT_Excep_ICU_IRQ8
 682                             	_INT_Excep_ICU_IRQ8:
 683                             	.LFB45:
 225:../src/interrupt_handlers.c **** 
 226:../src/interrupt_handlers.c **** //;0x0120 IRQ8
 227:../src/interrupt_handlers.c **** void  INT_Excep_ICU_IRQ8(void){ }
 684                             		.loc 1 227 0
 685                             		; Note: Interrupt Handler
 686 0168 7E A6                   		push.l	r6
 687                             	.LCFI90:
 688 016a EF 06                   		mov.L	r0, r6
 689                             	.LCFI91:
 690                             		.loc 1 227 0
 691 016c 7E B6                   		pop	r6
 692 016e 7F 95                   		rte
 693                             	.LFE45:
 695                             		.global	_INT_Excep_ICU_IRQ9
 697                             	_INT_Excep_ICU_IRQ9:
 698                             	.LFB46:
 228:../src/interrupt_handlers.c **** 
 229:../src/interrupt_handlers.c **** //;0x0124 IRQ9
 230:../src/interrupt_handlers.c **** void  INT_Excep_ICU_IRQ9(void){ }
 699                             		.loc 1 230 0
 700                             		; Note: Interrupt Handler
 701 0170 7E A6                   		push.l	r6
 702                             	.LCFI92:
 703 0172 EF 06                   		mov.L	r0, r6
 704                             	.LCFI93:
 705                             		.loc 1 230 0
 706 0174 7E B6                   		pop	r6
 707 0176 7F 95                   		rte
 708                             	.LFE46:
 710                             		.global	_INT_Excep_ICU_IRQ10
 712                             	_INT_Excep_ICU_IRQ10:
 713                             	.LFB47:
 231:../src/interrupt_handlers.c **** 
 232:../src/interrupt_handlers.c **** //;0x0128 IRQ10
 233:../src/interrupt_handlers.c **** void  INT_Excep_ICU_IRQ10(void){ }
 714                             		.loc 1 233 0
 715                             		; Note: Interrupt Handler
 716 0178 7E A6                   		push.l	r6
 717                             	.LCFI94:
 718 017a EF 06                   		mov.L	r0, r6
 719                             	.LCFI95:
 720                             		.loc 1 233 0
 721 017c 7E B6                   		pop	r6
 722 017e 7F 95                   		rte
 723                             	.LFE47:
 725                             		.global	_INT_Excep_ICU_IRQ11
 727                             	_INT_Excep_ICU_IRQ11:
 728                             	.LFB48:
 234:../src/interrupt_handlers.c **** 
 235:../src/interrupt_handlers.c **** //;0x012C IRQ11
 236:../src/interrupt_handlers.c **** void  INT_Excep_ICU_IRQ11(void){ }
 729                             		.loc 1 236 0
 730                             		; Note: Interrupt Handler
 731 0180 7E A6                   		push.l	r6
 732                             	.LCFI96:
 733 0182 EF 06                   		mov.L	r0, r6
 734                             	.LCFI97:
 735                             		.loc 1 236 0
 736 0184 7E B6                   		pop	r6
 737 0186 7F 95                   		rte
 738                             	.LFE48:
 740                             		.global	_INT_Excep_ICU_IRQ12
 742                             	_INT_Excep_ICU_IRQ12:
 743                             	.LFB49:
 237:../src/interrupt_handlers.c **** 
 238:../src/interrupt_handlers.c **** //;0x0130 IRQ12
 239:../src/interrupt_handlers.c **** void  INT_Excep_ICU_IRQ12(void){ }
 744                             		.loc 1 239 0
 745                             		; Note: Interrupt Handler
 746 0188 7E A6                   		push.l	r6
 747                             	.LCFI98:
 748 018a EF 06                   		mov.L	r0, r6
 749                             	.LCFI99:
 750                             		.loc 1 239 0
 751 018c 7E B6                   		pop	r6
 752 018e 7F 95                   		rte
 753                             	.LFE49:
 755                             		.global	_INT_Excep_ICU_IRQ13
 757                             	_INT_Excep_ICU_IRQ13:
 758                             	.LFB50:
 240:../src/interrupt_handlers.c **** 
 241:../src/interrupt_handlers.c **** //;0x0134 IRQ13
 242:../src/interrupt_handlers.c **** void  INT_Excep_ICU_IRQ13(void){ }
 759                             		.loc 1 242 0
 760                             		; Note: Interrupt Handler
 761 0190 7E A6                   		push.l	r6
 762                             	.LCFI100:
 763 0192 EF 06                   		mov.L	r0, r6
 764                             	.LCFI101:
 765                             		.loc 1 242 0
 766 0194 7E B6                   		pop	r6
 767 0196 7F 95                   		rte
 768                             	.LFE50:
 770                             		.global	_INT_Excep_ICU_IRQ14
 772                             	_INT_Excep_ICU_IRQ14:
 773                             	.LFB51:
 243:../src/interrupt_handlers.c **** 
 244:../src/interrupt_handlers.c **** //;0x0138 IRQ14
 245:../src/interrupt_handlers.c **** void  INT_Excep_ICU_IRQ14(void){ }
 774                             		.loc 1 245 0
 775                             		; Note: Interrupt Handler
 776 0198 7E A6                   		push.l	r6
 777                             	.LCFI102:
 778 019a EF 06                   		mov.L	r0, r6
 779                             	.LCFI103:
 780                             		.loc 1 245 0
 781 019c 7E B6                   		pop	r6
 782 019e 7F 95                   		rte
 783                             	.LFE51:
 785                             		.global	_INT_Excep_ICU_IRQ15
 787                             	_INT_Excep_ICU_IRQ15:
 788                             	.LFB52:
 246:../src/interrupt_handlers.c **** 
 247:../src/interrupt_handlers.c **** //;0x013C IRQ15
 248:../src/interrupt_handlers.c **** void  INT_Excep_ICU_IRQ15(void){ }
 789                             		.loc 1 248 0
 790                             		; Note: Interrupt Handler
 791 01a0 7E A6                   		push.l	r6
 792                             	.LCFI104:
 793 01a2 EF 06                   		mov.L	r0, r6
 794                             	.LCFI105:
 795                             		.loc 1 248 0
 796 01a4 7E B6                   		pop	r6
 797 01a6 7F 95                   		rte
 798                             	.LFE52:
 800                             		.global	_INT_Excep_USB_USBR0
 802                             	_INT_Excep_USB_USBR0:
 803                             	.LFB53:
 249:../src/interrupt_handlers.c **** 
 250:../src/interrupt_handlers.c **** //;0x0140  Reserved
 251:../src/interrupt_handlers.c ****     
 252:../src/interrupt_handlers.c **** //;0x0144  Reserved
 253:../src/interrupt_handlers.c ****     
 254:../src/interrupt_handlers.c **** //;0x0148  Reserved
 255:../src/interrupt_handlers.c ****     
 256:../src/interrupt_handlers.c **** //;0x014C  Reserved
 257:../src/interrupt_handlers.c ****     
 258:../src/interrupt_handlers.c **** //;0x0150  Reserved
 259:../src/interrupt_handlers.c ****     
 260:../src/interrupt_handlers.c **** //;0x0154  Reserved
 261:../src/interrupt_handlers.c ****     
 262:../src/interrupt_handlers.c **** //;0x0158  Reserved
 263:../src/interrupt_handlers.c ****     
 264:../src/interrupt_handlers.c **** //;0x015C  Reserved
 265:../src/interrupt_handlers.c ****     
 266:../src/interrupt_handlers.c **** //;0x0160  Reserved
 267:../src/interrupt_handlers.c ****     
 268:../src/interrupt_handlers.c **** //;0x0164  Reserved
 269:../src/interrupt_handlers.c ****     
 270:../src/interrupt_handlers.c **** //;0x0168  USB_USBR0
 271:../src/interrupt_handlers.c **** void  INT_Excep_USB_USBR0(void){ }
 804                             		.loc 1 271 0
 805                             		; Note: Interrupt Handler
 806 01a8 7E A6                   		push.l	r6
 807                             	.LCFI106:
 808 01aa EF 06                   		mov.L	r0, r6
 809                             	.LCFI107:
 810                             		.loc 1 271 0
 811 01ac 7E B6                   		pop	r6
 812 01ae 7F 95                   		rte
 813                             	.LFE53:
 815                             		.global	_INT_Excep_USB_USBR1
 817                             	_INT_Excep_USB_USBR1:
 818                             	.LFB54:
 272:../src/interrupt_handlers.c **** 
 273:../src/interrupt_handlers.c **** //;0x016C  USB_USBR1
 274:../src/interrupt_handlers.c **** void  INT_Excep_USB_USBR1(void){ }
 819                             		.loc 1 274 0
 820                             		; Note: Interrupt Handler
 821 01b0 7E A6                   		push.l	r6
 822                             	.LCFI108:
 823 01b2 EF 06                   		mov.L	r0, r6
 824                             	.LCFI109:
 825                             		.loc 1 274 0
 826 01b4 7E B6                   		pop	r6
 827 01b6 7F 95                   		rte
 828                             	.LFE54:
 830                             		.global	_INT_Excep_RTC_ALM
 832                             	_INT_Excep_RTC_ALM:
 833                             	.LFB55:
 275:../src/interrupt_handlers.c **** 
 276:../src/interrupt_handlers.c **** //;0x0170  RTC_ALM
 277:../src/interrupt_handlers.c **** void  INT_Excep_RTC_ALM(void){ }        
 834                             		.loc 1 277 0
 835                             		; Note: Interrupt Handler
 836 01b8 7E A6                   		push.l	r6
 837                             	.LCFI110:
 838 01ba EF 06                   		mov.L	r0, r6
 839                             	.LCFI111:
 840                             		.loc 1 277 0
 841 01bc 7E B6                   		pop	r6
 842 01be 7F 95                   		rte
 843                             	.LFE55:
 845                             		.global	_INT_Excep_WDT_WOVI
 847                             	_INT_Excep_WDT_WOVI:
 848                             	.LFB56:
 278:../src/interrupt_handlers.c **** 
 279:../src/interrupt_handlers.c **** //;0x0174  Reserved
 280:../src/interrupt_handlers.c ****     
 281:../src/interrupt_handlers.c **** //;0x0178  Reserved
 282:../src/interrupt_handlers.c ****     
 283:../src/interrupt_handlers.c **** //;0x017C  Reserved
 284:../src/interrupt_handlers.c ****     
 285:../src/interrupt_handlers.c **** //;0x0180  WDT_WOVI
 286:../src/interrupt_handlers.c **** void  INT_Excep_WDT_WOVI(void){ }
 849                             		.loc 1 286 0
 850                             		; Note: Interrupt Handler
 851 01c0 7E A6                   		push.l	r6
 852                             	.LCFI112:
 853 01c2 EF 06                   		mov.L	r0, r6
 854                             	.LCFI113:
 855                             		.loc 1 286 0
 856 01c4 7E B6                   		pop	r6
 857 01c6 7F 95                   		rte
 858                             	.LFE56:
 860                             		.global	_INT_Excep_AD0_ADI0
 862                             	_INT_Excep_AD0_ADI0:
 863                             	.LFB57:
 287:../src/interrupt_handlers.c **** 
 288:../src/interrupt_handlers.c **** //;0x0184  Reserved
 289:../src/interrupt_handlers.c ****     
 290:../src/interrupt_handlers.c **** //;0x0188  AD0_ADI0
 291:../src/interrupt_handlers.c **** void  INT_Excep_AD0_ADI0(void){ }
 864                             		.loc 1 291 0
 865                             		; Note: Interrupt Handler
 866 01c8 7E A6                   		push.l	r6
 867                             	.LCFI114:
 868 01ca EF 06                   		mov.L	r0, r6
 869                             	.LCFI115:
 870                             		.loc 1 291 0
 871 01cc 7E B6                   		pop	r6
 872 01ce 7F 95                   		rte
 873                             	.LFE57:
 875                             		.global	_INT_Excep_AD1_ADI1
 877                             	_INT_Excep_AD1_ADI1:
 878                             	.LFB58:
 292:../src/interrupt_handlers.c **** 
 293:../src/interrupt_handlers.c **** //;0x018C  AD1_ADI1
 294:../src/interrupt_handlers.c **** void  INT_Excep_AD1_ADI1(void){ }
 879                             		.loc 1 294 0
 880                             		; Note: Interrupt Handler
 881 01d0 7E A6                   		push.l	r6
 882                             	.LCFI116:
 883 01d2 EF 06                   		mov.L	r0, r6
 884                             	.LCFI117:
 885                             		.loc 1 294 0
 886 01d4 7E B6                   		pop	r6
 887 01d6 7F 95                   		rte
 888                             	.LFE58:
 890                             		.global	_INT_Excep_S12AD_ADI
 892                             	_INT_Excep_S12AD_ADI:
 893                             	.LFB59:
 295:../src/interrupt_handlers.c **** 
 296:../src/interrupt_handlers.c **** //;0x0190  Reserved
 297:../src/interrupt_handlers.c ****     
 298:../src/interrupt_handlers.c **** //;0x0194  Reserved
 299:../src/interrupt_handlers.c ****     
 300:../src/interrupt_handlers.c **** //;0x0198  S12AD_ADI
 301:../src/interrupt_handlers.c **** void  INT_Excep_S12AD_ADI(void){ }
 894                             		.loc 1 301 0
 895                             		; Note: Interrupt Handler
 896 01d8 7E A6                   		push.l	r6
 897                             	.LCFI118:
 898 01da EF 06                   		mov.L	r0, r6
 899                             	.LCFI119:
 900                             		.loc 1 301 0
 901 01dc 7E B6                   		pop	r6
 902 01de 7F 95                   		rte
 903                             	.LFE59:
 905                             		.global	_INT_Excep_MTU0_TGIA0
 907                             	_INT_Excep_MTU0_TGIA0:
 908                             	.LFB60:
 302:../src/interrupt_handlers.c **** 
 303:../src/interrupt_handlers.c **** //;0x019C  Reserved
 304:../src/interrupt_handlers.c ****                                             
 305:../src/interrupt_handlers.c **** //;0x01A0  Reserved
 306:../src/interrupt_handlers.c ****   
 307:../src/interrupt_handlers.c **** //;0x01A4  Reserved
 308:../src/interrupt_handlers.c ****         
 309:../src/interrupt_handlers.c **** //;0x01A8  Reserved
 310:../src/interrupt_handlers.c ****     
 311:../src/interrupt_handlers.c **** //;0x01AC  Reserved
 312:../src/interrupt_handlers.c ****     
 313:../src/interrupt_handlers.c **** //;0x01B0  Reserved
 314:../src/interrupt_handlers.c ****         
 315:../src/interrupt_handlers.c **** //;0x01B4  Reserved
 316:../src/interrupt_handlers.c ****                             
 317:../src/interrupt_handlers.c **** //;0x01B8  Reserved
 318:../src/interrupt_handlers.c ****     
 319:../src/interrupt_handlers.c **** //;0x01BC  Reserved
 320:../src/interrupt_handlers.c ****         
 321:../src/interrupt_handlers.c **** //;0x01C0  Reserved
 322:../src/interrupt_handlers.c ****     
 323:../src/interrupt_handlers.c **** //;0x01C4  Reserved
 324:../src/interrupt_handlers.c ****     
 325:../src/interrupt_handlers.c **** //;0x01C8  MTU0_TGIA0
 326:../src/interrupt_handlers.c **** void  INT_Excep_MTU0_TGIA0(void){ }  
 909                             		.loc 1 326 0
 910                             		; Note: Interrupt Handler
 911 01e0 7E A6                   		push.l	r6
 912                             	.LCFI120:
 913 01e2 EF 06                   		mov.L	r0, r6
 914                             	.LCFI121:
 915                             		.loc 1 326 0
 916 01e4 7E B6                   		pop	r6
 917 01e6 7F 95                   		rte
 918                             	.LFE60:
 920                             		.global	_INT_Excep_MTU0_TGIB0
 922                             	_INT_Excep_MTU0_TGIB0:
 923                             	.LFB61:
 327:../src/interrupt_handlers.c **** 
 328:../src/interrupt_handlers.c **** //;0x01CC  MTU0_TGIB0
 329:../src/interrupt_handlers.c **** void  INT_Excep_MTU0_TGIB0(void){ }
 924                             		.loc 1 329 0
 925                             		; Note: Interrupt Handler
 926 01e8 7E A6                   		push.l	r6
 927                             	.LCFI122:
 928 01ea EF 06                   		mov.L	r0, r6
 929                             	.LCFI123:
 930                             		.loc 1 329 0
 931 01ec 7E B6                   		pop	r6
 932 01ee 7F 95                   		rte
 933                             	.LFE61:
 935                             		.global	_INT_Excep_MTU0_TGIC0
 937                             	_INT_Excep_MTU0_TGIC0:
 938                             	.LFB62:
 330:../src/interrupt_handlers.c **** 
 331:../src/interrupt_handlers.c **** //;0x01D0  MTU0_TGIC0
 332:../src/interrupt_handlers.c **** void  INT_Excep_MTU0_TGIC0(void){ }    
 939                             		.loc 1 332 0
 940                             		; Note: Interrupt Handler
 941 01f0 7E A6                   		push.l	r6
 942                             	.LCFI124:
 943 01f2 EF 06                   		mov.L	r0, r6
 944                             	.LCFI125:
 945                             		.loc 1 332 0
 946 01f4 7E B6                   		pop	r6
 947 01f6 7F 95                   		rte
 948                             	.LFE62:
 950                             		.global	_INT_Excep_MTU0_TGID0
 952                             	_INT_Excep_MTU0_TGID0:
 953                             	.LFB63:
 333:../src/interrupt_handlers.c **** 
 334:../src/interrupt_handlers.c **** //;0x01D4  MTU0_TGID0
 335:../src/interrupt_handlers.c **** void  INT_Excep_MTU0_TGID0(void){ }    
 954                             		.loc 1 335 0
 955                             		; Note: Interrupt Handler
 956 01f8 7E A6                   		push.l	r6
 957                             	.LCFI126:
 958 01fa EF 06                   		mov.L	r0, r6
 959                             	.LCFI127:
 960                             		.loc 1 335 0
 961 01fc 7E B6                   		pop	r6
 962 01fe 7F 95                   		rte
 963                             	.LFE63:
 965                             		.global	_INT_Excep_MTU0_TCIV0
 967                             	_INT_Excep_MTU0_TCIV0:
 968                             	.LFB64:
 336:../src/interrupt_handlers.c **** 
 337:../src/interrupt_handlers.c **** //;0x01D8  MTU0_TCIV0
 338:../src/interrupt_handlers.c **** void  INT_Excep_MTU0_TCIV0(void){ }
 969                             		.loc 1 338 0
 970                             		; Note: Interrupt Handler
 971 0200 7E A6                   		push.l	r6
 972                             	.LCFI128:
 973 0202 EF 06                   		mov.L	r0, r6
 974                             	.LCFI129:
 975                             		.loc 1 338 0
 976 0204 7E B6                   		pop	r6
 977 0206 7F 95                   		rte
 978                             	.LFE64:
 980                             		.global	_INT_Excep_MTU0_TGIE0
 982                             	_INT_Excep_MTU0_TGIE0:
 983                             	.LFB65:
 339:../src/interrupt_handlers.c **** 
 340:../src/interrupt_handlers.c **** //;0x01DC  MTU0_TGIE0
 341:../src/interrupt_handlers.c **** void  INT_Excep_MTU0_TGIE0(void){ }
 984                             		.loc 1 341 0
 985                             		; Note: Interrupt Handler
 986 0208 7E A6                   		push.l	r6
 987                             	.LCFI130:
 988 020a EF 06                   		mov.L	r0, r6
 989                             	.LCFI131:
 990                             		.loc 1 341 0
 991 020c 7E B6                   		pop	r6
 992 020e 7F 95                   		rte
 993                             	.LFE65:
 995                             		.global	_INT_Excep_MTU0_TGIF0
 997                             	_INT_Excep_MTU0_TGIF0:
 998                             	.LFB66:
 342:../src/interrupt_handlers.c **** 
 343:../src/interrupt_handlers.c **** //;0x01E0  MTU0_TGIF0
 344:../src/interrupt_handlers.c **** void  INT_Excep_MTU0_TGIF0(void){ }
 999                             		.loc 1 344 0
 1000                             		; Note: Interrupt Handler
 1001 0210 7E A6                   		push.l	r6
 1002                             	.LCFI132:
 1003 0212 EF 06                   		mov.L	r0, r6
 1004                             	.LCFI133:
 1005                             		.loc 1 344 0
 1006 0214 7E B6                   		pop	r6
 1007 0216 7F 95                   		rte
 1008                             	.LFE66:
 1010                             		.global	_INT_Excep_MTU1_TGIA1
 1012                             	_INT_Excep_MTU1_TGIA1:
 1013                             	.LFB67:
 345:../src/interrupt_handlers.c **** 
 346:../src/interrupt_handlers.c **** //;0x01E4  MTU1_TGIA1                
 347:../src/interrupt_handlers.c **** void  INT_Excep_MTU1_TGIA1(void){ }
 1014                             		.loc 1 347 0
 1015                             		; Note: Interrupt Handler
 1016 0218 7E A6                   		push.l	r6
 1017                             	.LCFI134:
 1018 021a EF 06                   		mov.L	r0, r6
 1019                             	.LCFI135:
 1020                             		.loc 1 347 0
 1021 021c 7E B6                   		pop	r6
 1022 021e 7F 95                   		rte
 1023                             	.LFE67:
 1025                             		.global	_INT_Excep_MTU1_TGIB1
 1027                             	_INT_Excep_MTU1_TGIB1:
 1028                             	.LFB68:
 348:../src/interrupt_handlers.c **** 
 349:../src/interrupt_handlers.c **** //;0x01E8  MTU1_TGIB1
 350:../src/interrupt_handlers.c **** void  INT_Excep_MTU1_TGIB1(void){ }
 1029                             		.loc 1 350 0
 1030                             		; Note: Interrupt Handler
 1031 0220 7E A6                   		push.l	r6
 1032                             	.LCFI136:
 1033 0222 EF 06                   		mov.L	r0, r6
 1034                             	.LCFI137:
 1035                             		.loc 1 350 0
 1036 0224 7E B6                   		pop	r6
 1037 0226 7F 95                   		rte
 1038                             	.LFE68:
 1040                             		.global	_INT_Excep_MTU1_TCIV1
 1042                             	_INT_Excep_MTU1_TCIV1:
 1043                             	.LFB69:
 351:../src/interrupt_handlers.c **** 
 352:../src/interrupt_handlers.c **** //;0x01EC  MTU1_TCIV1
 353:../src/interrupt_handlers.c **** void  INT_Excep_MTU1_TCIV1(void){ }
 1044                             		.loc 1 353 0
 1045                             		; Note: Interrupt Handler
 1046 0228 7E A6                   		push.l	r6
 1047                             	.LCFI138:
 1048 022a EF 06                   		mov.L	r0, r6
 1049                             	.LCFI139:
 1050                             		.loc 1 353 0
 1051 022c 7E B6                   		pop	r6
 1052 022e 7F 95                   		rte
 1053                             	.LFE69:
 1055                             		.global	_INT_Excep_MTU1_TCIU1
 1057                             	_INT_Excep_MTU1_TCIU1:
 1058                             	.LFB70:
 354:../src/interrupt_handlers.c **** 
 355:../src/interrupt_handlers.c **** //;0x01F0  MTU1_TCIU1
 356:../src/interrupt_handlers.c **** void  INT_Excep_MTU1_TCIU1(void){ }
 1059                             		.loc 1 356 0
 1060                             		; Note: Interrupt Handler
 1061 0230 7E A6                   		push.l	r6
 1062                             	.LCFI140:
 1063 0232 EF 06                   		mov.L	r0, r6
 1064                             	.LCFI141:
 1065                             		.loc 1 356 0
 1066 0234 7E B6                   		pop	r6
 1067 0236 7F 95                   		rte
 1068                             	.LFE70:
 1070                             		.global	_INT_Excep_MTU2_TGIA2
 1072                             	_INT_Excep_MTU2_TGIA2:
 1073                             	.LFB71:
 357:../src/interrupt_handlers.c **** 
 358:../src/interrupt_handlers.c **** //;0x01F4  MTU2_TGIA2
 359:../src/interrupt_handlers.c **** void  INT_Excep_MTU2_TGIA2(void){ }
 1074                             		.loc 1 359 0
 1075                             		; Note: Interrupt Handler
 1076 0238 7E A6                   		push.l	r6
 1077                             	.LCFI142:
 1078 023a EF 06                   		mov.L	r0, r6
 1079                             	.LCFI143:
 1080                             		.loc 1 359 0
 1081 023c 7E B6                   		pop	r6
 1082 023e 7F 95                   		rte
 1083                             	.LFE71:
 1085                             		.global	_INT_Excep_MTU2_TGIB2
 1087                             	_INT_Excep_MTU2_TGIB2:
 1088                             	.LFB72:
 360:../src/interrupt_handlers.c **** 
 361:../src/interrupt_handlers.c **** //;0x01F8  MTU2_TGIB2
 362:../src/interrupt_handlers.c **** void  INT_Excep_MTU2_TGIB2(void){ }
 1089                             		.loc 1 362 0
 1090                             		; Note: Interrupt Handler
 1091 0240 7E A6                   		push.l	r6
 1092                             	.LCFI144:
 1093 0242 EF 06                   		mov.L	r0, r6
 1094                             	.LCFI145:
 1095                             		.loc 1 362 0
 1096 0244 7E B6                   		pop	r6
 1097 0246 7F 95                   		rte
 1098                             	.LFE72:
 1100                             		.global	_INT_Excep_MTU2_TCIV2
 1102                             	_INT_Excep_MTU2_TCIV2:
 1103                             	.LFB73:
 363:../src/interrupt_handlers.c **** 
 364:../src/interrupt_handlers.c **** //;0x01FC  MTU2_TCIV2
 365:../src/interrupt_handlers.c **** void  INT_Excep_MTU2_TCIV2(void){ }
 1104                             		.loc 1 365 0
 1105                             		; Note: Interrupt Handler
 1106 0248 7E A6                   		push.l	r6
 1107                             	.LCFI146:
 1108 024a EF 06                   		mov.L	r0, r6
 1109                             	.LCFI147:
 1110                             		.loc 1 365 0
 1111 024c 7E B6                   		pop	r6
 1112 024e 7F 95                   		rte
 1113                             	.LFE73:
 1115                             		.global	_INT_Excep_MTU2_TCIU2
 1117                             	_INT_Excep_MTU2_TCIU2:
 1118                             	.LFB74:
 366:../src/interrupt_handlers.c **** 
 367:../src/interrupt_handlers.c **** //;0x0200  MTU2_TCIU2
 368:../src/interrupt_handlers.c **** void  INT_Excep_MTU2_TCIU2(void){ }
 1119                             		.loc 1 368 0
 1120                             		; Note: Interrupt Handler
 1121 0250 7E A6                   		push.l	r6
 1122                             	.LCFI148:
 1123 0252 EF 06                   		mov.L	r0, r6
 1124                             	.LCFI149:
 1125                             		.loc 1 368 0
 1126 0254 7E B6                   		pop	r6
 1127 0256 7F 95                   		rte
 1128                             	.LFE74:
 1130                             		.global	_INT_Excep_MTU3_TGIA3
 1132                             	_INT_Excep_MTU3_TGIA3:
 1133                             	.LFB75:
 369:../src/interrupt_handlers.c **** 
 370:../src/interrupt_handlers.c **** //;0x0204  MTU3_TGIA3
 371:../src/interrupt_handlers.c **** void  INT_Excep_MTU3_TGIA3(void){ }
 1134                             		.loc 1 371 0
 1135                             		; Note: Interrupt Handler
 1136 0258 7E A6                   		push.l	r6
 1137                             	.LCFI150:
 1138 025a EF 06                   		mov.L	r0, r6
 1139                             	.LCFI151:
 1140                             		.loc 1 371 0
 1141 025c 7E B6                   		pop	r6
 1142 025e 7F 95                   		rte
 1143                             	.LFE75:
 1145                             		.global	_INT_Excep_MTU3_TGIB3
 1147                             	_INT_Excep_MTU3_TGIB3:
 1148                             	.LFB76:
 372:../src/interrupt_handlers.c **** 
 373:../src/interrupt_handlers.c **** //;0x0208  MTU3_TGIB3
 374:../src/interrupt_handlers.c **** void  INT_Excep_MTU3_TGIB3(void){ }
 1149                             		.loc 1 374 0
 1150                             		; Note: Interrupt Handler
 1151 0260 7E A6                   		push.l	r6
 1152                             	.LCFI152:
 1153 0262 EF 06                   		mov.L	r0, r6
 1154                             	.LCFI153:
 1155                             		.loc 1 374 0
 1156 0264 7E B6                   		pop	r6
 1157 0266 7F 95                   		rte
 1158                             	.LFE76:
 1160                             		.global	_INT_Excep_MTU3_TGIC3
 1162                             	_INT_Excep_MTU3_TGIC3:
 1163                             	.LFB77:
 375:../src/interrupt_handlers.c **** 
 376:../src/interrupt_handlers.c **** //;0x020C MTU3_TGIC3
 377:../src/interrupt_handlers.c **** void  INT_Excep_MTU3_TGIC3(void){ }    
 1164                             		.loc 1 377 0
 1165                             		; Note: Interrupt Handler
 1166 0268 7E A6                   		push.l	r6
 1167                             	.LCFI154:
 1168 026a EF 06                   		mov.L	r0, r6
 1169                             	.LCFI155:
 1170                             		.loc 1 377 0
 1171 026c 7E B6                   		pop	r6
 1172 026e 7F 95                   		rte
 1173                             	.LFE77:
 1175                             		.global	_INT_Excep_MTU3_TGID3
 1177                             	_INT_Excep_MTU3_TGID3:
 1178                             	.LFB78:
 378:../src/interrupt_handlers.c **** 
 379:../src/interrupt_handlers.c **** //;0x0210 MTU3_TGID3
 380:../src/interrupt_handlers.c **** void  INT_Excep_MTU3_TGID3(void){ }
 1179                             		.loc 1 380 0
 1180                             		; Note: Interrupt Handler
 1181 0270 7E A6                   		push.l	r6
 1182                             	.LCFI156:
 1183 0272 EF 06                   		mov.L	r0, r6
 1184                             	.LCFI157:
 1185                             		.loc 1 380 0
 1186 0274 7E B6                   		pop	r6
 1187 0276 7F 95                   		rte
 1188                             	.LFE78:
 1190                             		.global	_INT_Excep_MTU3_TCIV3
 1192                             	_INT_Excep_MTU3_TCIV3:
 1193                             	.LFB79:
 381:../src/interrupt_handlers.c **** 
 382:../src/interrupt_handlers.c **** //;0x0214  MTU3_TCIV3
 383:../src/interrupt_handlers.c **** void  INT_Excep_MTU3_TCIV3(void){ }
 1194                             		.loc 1 383 0
 1195                             		; Note: Interrupt Handler
 1196 0278 7E A6                   		push.l	r6
 1197                             	.LCFI158:
 1198 027a EF 06                   		mov.L	r0, r6
 1199                             	.LCFI159:
 1200                             		.loc 1 383 0
 1201 027c 7E B6                   		pop	r6
 1202 027e 7F 95                   		rte
 1203                             	.LFE79:
 1205                             		.global	_INT_Excep_MTU4_TGIA4
 1207                             	_INT_Excep_MTU4_TGIA4:
 1208                             	.LFB80:
 384:../src/interrupt_handlers.c **** 
 385:../src/interrupt_handlers.c **** //;0x0218  MTU4_TGIA4
 386:../src/interrupt_handlers.c **** void  INT_Excep_MTU4_TGIA4(void){ }    
 1209                             		.loc 1 386 0
 1210                             		; Note: Interrupt Handler
 1211 0280 7E A6                   		push.l	r6
 1212                             	.LCFI160:
 1213 0282 EF 06                   		mov.L	r0, r6
 1214                             	.LCFI161:
 1215                             		.loc 1 386 0
 1216 0284 7E B6                   		pop	r6
 1217 0286 7F 95                   		rte
 1218                             	.LFE80:
 1220                             		.global	_INT_Excep_MTU4_TGIB4
 1222                             	_INT_Excep_MTU4_TGIB4:
 1223                             	.LFB81:
 387:../src/interrupt_handlers.c **** 
 388:../src/interrupt_handlers.c **** //;0x021C  MTU4_TGIB4
 389:../src/interrupt_handlers.c **** void  INT_Excep_MTU4_TGIB4(void){ }
 1224                             		.loc 1 389 0
 1225                             		; Note: Interrupt Handler
 1226 0288 7E A6                   		push.l	r6
 1227                             	.LCFI162:
 1228 028a EF 06                   		mov.L	r0, r6
 1229                             	.LCFI163:
 1230                             		.loc 1 389 0
 1231 028c 7E B6                   		pop	r6
 1232 028e 7F 95                   		rte
 1233                             	.LFE81:
 1235                             		.global	_INT_Excep_MTU4_TGIC4
 1237                             	_INT_Excep_MTU4_TGIC4:
 1238                             	.LFB82:
 390:../src/interrupt_handlers.c **** 
 391:../src/interrupt_handlers.c **** //;0x0220  MTU4_TGIC4
 392:../src/interrupt_handlers.c **** void  INT_Excep_MTU4_TGIC4(void){ }
 1239                             		.loc 1 392 0
 1240                             		; Note: Interrupt Handler
 1241 0290 7E A6                   		push.l	r6
 1242                             	.LCFI164:
 1243 0292 EF 06                   		mov.L	r0, r6
 1244                             	.LCFI165:
 1245                             		.loc 1 392 0
 1246 0294 7E B6                   		pop	r6
 1247 0296 7F 95                   		rte
 1248                             	.LFE82:
 1250                             		.global	_INT_Excep_MTU4_TGID4
 1252                             	_INT_Excep_MTU4_TGID4:
 1253                             	.LFB83:
 393:../src/interrupt_handlers.c **** 
 394:../src/interrupt_handlers.c **** //;0x0224  MTU4_TGID4
 395:../src/interrupt_handlers.c **** void  INT_Excep_MTU4_TGID4(void){ }
 1254                             		.loc 1 395 0
 1255                             		; Note: Interrupt Handler
 1256 0298 7E A6                   		push.l	r6
 1257                             	.LCFI166:
 1258 029a EF 06                   		mov.L	r0, r6
 1259                             	.LCFI167:
 1260                             		.loc 1 395 0
 1261 029c 7E B6                   		pop	r6
 1262 029e 7F 95                   		rte
 1263                             	.LFE83:
 1265                             		.global	_INT_Excep_MTU4_TCIV4
 1267                             	_INT_Excep_MTU4_TCIV4:
 1268                             	.LFB84:
 396:../src/interrupt_handlers.c **** 
 397:../src/interrupt_handlers.c **** //;0x0228  MTU4_TCIV4
 398:../src/interrupt_handlers.c **** void  INT_Excep_MTU4_TCIV4(void){ }            
 1269                             		.loc 1 398 0
 1270                             		; Note: Interrupt Handler
 1271 02a0 7E A6                   		push.l	r6
 1272                             	.LCFI168:
 1273 02a2 EF 06                   		mov.L	r0, r6
 1274                             	.LCFI169:
 1275                             		.loc 1 398 0
 1276 02a4 7E B6                   		pop	r6
 1277 02a6 7F 95                   		rte
 1278                             	.LFE84:
 1280                             		.global	_INT_Excep_MTU5_TGIU5
 1282                             	_INT_Excep_MTU5_TGIU5:
 1283                             	.LFB85:
 399:../src/interrupt_handlers.c **** 
 400:../src/interrupt_handlers.c **** //;0x022C  MTU5_TGIU5
 401:../src/interrupt_handlers.c **** void  INT_Excep_MTU5_TGIU5(void){ }
 1284                             		.loc 1 401 0
 1285                             		; Note: Interrupt Handler
 1286 02a8 7E A6                   		push.l	r6
 1287                             	.LCFI170:
 1288 02aa EF 06                   		mov.L	r0, r6
 1289                             	.LCFI171:
 1290                             		.loc 1 401 0
 1291 02ac 7E B6                   		pop	r6
 1292 02ae 7F 95                   		rte
 1293                             	.LFE85:
 1295                             		.global	_INT_Excep_MTU5_TGIV5
 1297                             	_INT_Excep_MTU5_TGIV5:
 1298                             	.LFB86:
 402:../src/interrupt_handlers.c **** 
 403:../src/interrupt_handlers.c **** //;0x0230  MTU5_TGIV5
 404:../src/interrupt_handlers.c **** void  INT_Excep_MTU5_TGIV5(void){ }
 1299                             		.loc 1 404 0
 1300                             		; Note: Interrupt Handler
 1301 02b0 7E A6                   		push.l	r6
 1302                             	.LCFI172:
 1303 02b2 EF 06                   		mov.L	r0, r6
 1304                             	.LCFI173:
 1305                             		.loc 1 404 0
 1306 02b4 7E B6                   		pop	r6
 1307 02b6 7F 95                   		rte
 1308                             	.LFE86:
 1310                             		.global	_INT_Excep_MTU5_TGIW5
 1312                             	_INT_Excep_MTU5_TGIW5:
 1313                             	.LFB87:
 405:../src/interrupt_handlers.c **** 
 406:../src/interrupt_handlers.c **** //;0x0234  MTU5_TGIW5
 407:../src/interrupt_handlers.c **** void  INT_Excep_MTU5_TGIW5(void){ }
 1314                             		.loc 1 407 0
 1315                             		; Note: Interrupt Handler
 1316 02b8 7E A6                   		push.l	r6
 1317                             	.LCFI174:
 1318 02ba EF 06                   		mov.L	r0, r6
 1319                             	.LCFI175:
 1320                             		.loc 1 407 0
 1321 02bc 7E B6                   		pop	r6
 1322 02be 7F 95                   		rte
 1323                             	.LFE87:
 1325                             		.global	_INT_Excep_MTU6_TGIA6
 1327                             	_INT_Excep_MTU6_TGIA6:
 1328                             	.LFB88:
 408:../src/interrupt_handlers.c **** 
 409:../src/interrupt_handlers.c **** //;0x0238  MTU6_TGIA6
 410:../src/interrupt_handlers.c **** void  INT_Excep_MTU6_TGIA6(void){ }
 1329                             		.loc 1 410 0
 1330                             		; Note: Interrupt Handler
 1331 02c0 7E A6                   		push.l	r6
 1332                             	.LCFI176:
 1333 02c2 EF 06                   		mov.L	r0, r6
 1334                             	.LCFI177:
 1335                             		.loc 1 410 0
 1336 02c4 7E B6                   		pop	r6
 1337 02c6 7F 95                   		rte
 1338                             	.LFE88:
 1340                             		.global	_INT_Excep_MTU6_TGIB6
 1342                             	_INT_Excep_MTU6_TGIB6:
 1343                             	.LFB89:
 411:../src/interrupt_handlers.c **** 
 412:../src/interrupt_handlers.c **** //;0x023C  MTU6_TGIB6
 413:../src/interrupt_handlers.c **** void  INT_Excep_MTU6_TGIB6(void){ }
 1344                             		.loc 1 413 0
 1345                             		; Note: Interrupt Handler
 1346 02c8 7E A6                   		push.l	r6
 1347                             	.LCFI178:
 1348 02ca EF 06                   		mov.L	r0, r6
 1349                             	.LCFI179:
 1350                             		.loc 1 413 0
 1351 02cc 7E B6                   		pop	r6
 1352 02ce 7F 95                   		rte
 1353                             	.LFE89:
 1355                             		.global	_INT_Excep_MTU6_TGIC6
 1357                             	_INT_Excep_MTU6_TGIC6:
 1358                             	.LFB90:
 414:../src/interrupt_handlers.c **** 
 415:../src/interrupt_handlers.c **** //;0x0240  MTU6_TGIC6
 416:../src/interrupt_handlers.c **** void  INT_Excep_MTU6_TGIC6(void){ }
 1359                             		.loc 1 416 0
 1360                             		; Note: Interrupt Handler
 1361 02d0 7E A6                   		push.l	r6
 1362                             	.LCFI180:
 1363 02d2 EF 06                   		mov.L	r0, r6
 1364                             	.LCFI181:
 1365                             		.loc 1 416 0
 1366 02d4 7E B6                   		pop	r6
 1367 02d6 7F 95                   		rte
 1368                             	.LFE90:
 1370                             		.global	_INT_Excep_MTU6_TGID6
 1372                             	_INT_Excep_MTU6_TGID6:
 1373                             	.LFB91:
 417:../src/interrupt_handlers.c **** 
 418:../src/interrupt_handlers.c **** //;0x0244  MTU6_TGID6
 419:../src/interrupt_handlers.c **** void  INT_Excep_MTU6_TGID6(void){ }    
 1374                             		.loc 1 419 0
 1375                             		; Note: Interrupt Handler
 1376 02d8 7E A6                   		push.l	r6
 1377                             	.LCFI182:
 1378 02da EF 06                   		mov.L	r0, r6
 1379                             	.LCFI183:
 1380                             		.loc 1 419 0
 1381 02dc 7E B6                   		pop	r6
 1382 02de 7F 95                   		rte
 1383                             	.LFE91:
 1385                             		.global	_INT_Excep_MTU6_TCIV6
 1387                             	_INT_Excep_MTU6_TCIV6:
 1388                             	.LFB92:
 420:../src/interrupt_handlers.c **** 
 421:../src/interrupt_handlers.c **** //;0x0248  MTU6_TCIV6
 422:../src/interrupt_handlers.c **** void  INT_Excep_MTU6_TCIV6(void){ }
 1389                             		.loc 1 422 0
 1390                             		; Note: Interrupt Handler
 1391 02e0 7E A6                   		push.l	r6
 1392                             	.LCFI184:
 1393 02e2 EF 06                   		mov.L	r0, r6
 1394                             	.LCFI185:
 1395                             		.loc 1 422 0
 1396 02e4 7E B6                   		pop	r6
 1397 02e6 7F 95                   		rte
 1398                             	.LFE92:
 1400                             		.global	_INT_Excep_MTU6_TGIE6
 1402                             	_INT_Excep_MTU6_TGIE6:
 1403                             	.LFB93:
 423:../src/interrupt_handlers.c **** 
 424:../src/interrupt_handlers.c **** //;0x024C  MTU6_TGIE6
 425:../src/interrupt_handlers.c **** void  INT_Excep_MTU6_TGIE6(void){ }    
 1404                             		.loc 1 425 0
 1405                             		; Note: Interrupt Handler
 1406 02e8 7E A6                   		push.l	r6
 1407                             	.LCFI186:
 1408 02ea EF 06                   		mov.L	r0, r6
 1409                             	.LCFI187:
 1410                             		.loc 1 425 0
 1411 02ec 7E B6                   		pop	r6
 1412 02ee 7F 95                   		rte
 1413                             	.LFE93:
 1415                             		.global	_INT_Excep_MTU6_TGIF6
 1417                             	_INT_Excep_MTU6_TGIF6:
 1418                             	.LFB94:
 426:../src/interrupt_handlers.c **** 
 427:../src/interrupt_handlers.c **** //;0x0250  MTU6_TGIF6
 428:../src/interrupt_handlers.c **** void  INT_Excep_MTU6_TGIF6(void){ }
 1419                             		.loc 1 428 0
 1420                             		; Note: Interrupt Handler
 1421 02f0 7E A6                   		push.l	r6
 1422                             	.LCFI188:
 1423 02f2 EF 06                   		mov.L	r0, r6
 1424                             	.LCFI189:
 1425                             		.loc 1 428 0
 1426 02f4 7E B6                   		pop	r6
 1427 02f6 7F 95                   		rte
 1428                             	.LFE94:
 1430                             		.global	_INT_Excep_MTU7_TGIA7
 1432                             	_INT_Excep_MTU7_TGIA7:
 1433                             	.LFB95:
 429:../src/interrupt_handlers.c **** 
 430:../src/interrupt_handlers.c **** //;0x0254  MTU7_TGIA7
 431:../src/interrupt_handlers.c **** void  INT_Excep_MTU7_TGIA7(void){ }
 1434                             		.loc 1 431 0
 1435                             		; Note: Interrupt Handler
 1436 02f8 7E A6                   		push.l	r6
 1437                             	.LCFI190:
 1438 02fa EF 06                   		mov.L	r0, r6
 1439                             	.LCFI191:
 1440                             		.loc 1 431 0
 1441 02fc 7E B6                   		pop	r6
 1442 02fe 7F 95                   		rte
 1443                             	.LFE95:
 1445                             		.global	_INT_Excep_MTU7_TGIB7
 1447                             	_INT_Excep_MTU7_TGIB7:
 1448                             	.LFB96:
 432:../src/interrupt_handlers.c **** 
 433:../src/interrupt_handlers.c **** //;0x0258  MTU7_TGIB7
 434:../src/interrupt_handlers.c **** void  INT_Excep_MTU7_TGIB7(void){ }    
 1449                             		.loc 1 434 0
 1450                             		; Note: Interrupt Handler
 1451 0300 7E A6                   		push.l	r6
 1452                             	.LCFI192:
 1453 0302 EF 06                   		mov.L	r0, r6
 1454                             	.LCFI193:
 1455                             		.loc 1 434 0
 1456 0304 7E B6                   		pop	r6
 1457 0306 7F 95                   		rte
 1458                             	.LFE96:
 1460                             		.global	_INT_Excep_MTU7_TCIV7
 1462                             	_INT_Excep_MTU7_TCIV7:
 1463                             	.LFB97:
 435:../src/interrupt_handlers.c **** 
 436:../src/interrupt_handlers.c **** //;0x025C  MTU7_TCIV7
 437:../src/interrupt_handlers.c **** void  INT_Excep_MTU7_TCIV7(void){ }
 1464                             		.loc 1 437 0
 1465                             		; Note: Interrupt Handler
 1466 0308 7E A6                   		push.l	r6
 1467                             	.LCFI194:
 1468 030a EF 06                   		mov.L	r0, r6
 1469                             	.LCFI195:
 1470                             		.loc 1 437 0
 1471 030c 7E B6                   		pop	r6
 1472 030e 7F 95                   		rte
 1473                             	.LFE97:
 1475                             		.global	_INT_Excep_MTU7_TCIU7
 1477                             	_INT_Excep_MTU7_TCIU7:
 1478                             	.LFB98:
 438:../src/interrupt_handlers.c **** 
 439:../src/interrupt_handlers.c **** //;0x0260  MTU7_TCIU7
 440:../src/interrupt_handlers.c **** void  INT_Excep_MTU7_TCIU7(void){ }
 1479                             		.loc 1 440 0
 1480                             		; Note: Interrupt Handler
 1481 0310 7E A6                   		push.l	r6
 1482                             	.LCFI196:
 1483 0312 EF 06                   		mov.L	r0, r6
 1484                             	.LCFI197:
 1485                             		.loc 1 440 0
 1486 0314 7E B6                   		pop	r6
 1487 0316 7F 95                   		rte
 1488                             	.LFE98:
 1490                             		.global	_INT_Excep_MTU8_TGIA8
 1492                             	_INT_Excep_MTU8_TGIA8:
 1493                             	.LFB99:
 441:../src/interrupt_handlers.c **** 
 442:../src/interrupt_handlers.c **** //;0x0264  MTU8_TGIA8
 443:../src/interrupt_handlers.c **** void  INT_Excep_MTU8_TGIA8(void){ }    
 1494                             		.loc 1 443 0
 1495                             		; Note: Interrupt Handler
 1496 0318 7E A6                   		push.l	r6
 1497                             	.LCFI198:
 1498 031a EF 06                   		mov.L	r0, r6
 1499                             	.LCFI199:
 1500                             		.loc 1 443 0
 1501 031c 7E B6                   		pop	r6
 1502 031e 7F 95                   		rte
 1503                             	.LFE99:
 1505                             		.global	_INT_Excep_MTU8_TGIB8
 1507                             	_INT_Excep_MTU8_TGIB8:
 1508                             	.LFB100:
 444:../src/interrupt_handlers.c **** 
 445:../src/interrupt_handlers.c **** //;0x0268  MTU8_TGIB8
 446:../src/interrupt_handlers.c **** void  INT_Excep_MTU8_TGIB8(void){ }
 1509                             		.loc 1 446 0
 1510                             		; Note: Interrupt Handler
 1511 0320 7E A6                   		push.l	r6
 1512                             	.LCFI200:
 1513 0322 EF 06                   		mov.L	r0, r6
 1514                             	.LCFI201:
 1515                             		.loc 1 446 0
 1516 0324 7E B6                   		pop	r6
 1517 0326 7F 95                   		rte
 1518                             	.LFE100:
 1520                             		.global	_INT_Excep_MTU8_TCIV8
 1522                             	_INT_Excep_MTU8_TCIV8:
 1523                             	.LFB101:
 447:../src/interrupt_handlers.c **** 
 448:../src/interrupt_handlers.c **** //;0x026C  MTU8_TCIV8
 449:../src/interrupt_handlers.c **** void  INT_Excep_MTU8_TCIV8(void){ }    
 1524                             		.loc 1 449 0
 1525                             		; Note: Interrupt Handler
 1526 0328 7E A6                   		push.l	r6
 1527                             	.LCFI202:
 1528 032a EF 06                   		mov.L	r0, r6
 1529                             	.LCFI203:
 1530                             		.loc 1 449 0
 1531 032c 7E B6                   		pop	r6
 1532 032e 7F 95                   		rte
 1533                             	.LFE101:
 1535                             		.global	_INT_Excep_MTU8_TCIU8
 1537                             	_INT_Excep_MTU8_TCIU8:
 1538                             	.LFB102:
 450:../src/interrupt_handlers.c **** 
 451:../src/interrupt_handlers.c **** //;0x0270  MTU8_TCIU8
 452:../src/interrupt_handlers.c **** void  INT_Excep_MTU8_TCIU8(void){ }
 1539                             		.loc 1 452 0
 1540                             		; Note: Interrupt Handler
 1541 0330 7E A6                   		push.l	r6
 1542                             	.LCFI204:
 1543 0332 EF 06                   		mov.L	r0, r6
 1544                             	.LCFI205:
 1545                             		.loc 1 452 0
 1546 0334 7E B6                   		pop	r6
 1547 0336 7F 95                   		rte
 1548                             	.LFE102:
 1550                             		.global	_INT_Excep_MTU9_TGIA9
 1552                             	_INT_Excep_MTU9_TGIA9:
 1553                             	.LFB103:
 453:../src/interrupt_handlers.c **** 
 454:../src/interrupt_handlers.c **** //;0x0274  MTU9_TGIA9
 455:../src/interrupt_handlers.c **** void  INT_Excep_MTU9_TGIA9(void){ }
 1554                             		.loc 1 455 0
 1555                             		; Note: Interrupt Handler
 1556 0338 7E A6                   		push.l	r6
 1557                             	.LCFI206:
 1558 033a EF 06                   		mov.L	r0, r6
 1559                             	.LCFI207:
 1560                             		.loc 1 455 0
 1561 033c 7E B6                   		pop	r6
 1562 033e 7F 95                   		rte
 1563                             	.LFE103:
 1565                             		.global	_INT_Excep_MTU9_TGIB9
 1567                             	_INT_Excep_MTU9_TGIB9:
 1568                             	.LFB104:
 456:../src/interrupt_handlers.c **** 
 457:../src/interrupt_handlers.c **** //;0x0278  MTU9_TGIB9
 458:../src/interrupt_handlers.c **** void  INT_Excep_MTU9_TGIB9(void){ }
 1569                             		.loc 1 458 0
 1570                             		; Note: Interrupt Handler
 1571 0340 7E A6                   		push.l	r6
 1572                             	.LCFI208:
 1573 0342 EF 06                   		mov.L	r0, r6
 1574                             	.LCFI209:
 1575                             		.loc 1 458 0
 1576 0344 7E B6                   		pop	r6
 1577 0346 7F 95                   		rte
 1578                             	.LFE104:
 1580                             		.global	_INT_Excep_MTU9_TGIC9
 1582                             	_INT_Excep_MTU9_TGIC9:
 1583                             	.LFB105:
 459:../src/interrupt_handlers.c **** 
 460:../src/interrupt_handlers.c **** //;0x027C  MTU9_TGIC9
 461:../src/interrupt_handlers.c **** void  INT_Excep_MTU9_TGIC9(void){ }
 1584                             		.loc 1 461 0
 1585                             		; Note: Interrupt Handler
 1586 0348 7E A6                   		push.l	r6
 1587                             	.LCFI210:
 1588 034a EF 06                   		mov.L	r0, r6
 1589                             	.LCFI211:
 1590                             		.loc 1 461 0
 1591 034c 7E B6                   		pop	r6
 1592 034e 7F 95                   		rte
 1593                             	.LFE105:
 1595                             		.global	_INT_Excep_MTU9_TGID9
 1597                             	_INT_Excep_MTU9_TGID9:
 1598                             	.LFB106:
 462:../src/interrupt_handlers.c **** 
 463:../src/interrupt_handlers.c **** //;0x0280  MTU9_TGID9
 464:../src/interrupt_handlers.c **** void  INT_Excep_MTU9_TGID9(void){ }    
 1599                             		.loc 1 464 0
 1600                             		; Note: Interrupt Handler
 1601 0350 7E A6                   		push.l	r6
 1602                             	.LCFI212:
 1603 0352 EF 06                   		mov.L	r0, r6
 1604                             	.LCFI213:
 1605                             		.loc 1 464 0
 1606 0354 7E B6                   		pop	r6
 1607 0356 7F 95                   		rte
 1608                             	.LFE106:
 1610                             		.global	_INT_Excep_MTU9_TCIV9
 1612                             	_INT_Excep_MTU9_TCIV9:
 1613                             	.LFB107:
 465:../src/interrupt_handlers.c **** 
 466:../src/interrupt_handlers.c **** //;0x0284  MTU9_TCIV9
 467:../src/interrupt_handlers.c **** void  INT_Excep_MTU9_TCIV9(void){ }
 1614                             		.loc 1 467 0
 1615                             		; Note: Interrupt Handler
 1616 0358 7E A6                   		push.l	r6
 1617                             	.LCFI214:
 1618 035a EF 06                   		mov.L	r0, r6
 1619                             	.LCFI215:
 1620                             		.loc 1 467 0
 1621 035c 7E B6                   		pop	r6
 1622 035e 7F 95                   		rte
 1623                             	.LFE107:
 1625                             		.global	_INT_Excep_MTU10_TGIA10
 1627                             	_INT_Excep_MTU10_TGIA10:
 1628                             	.LFB108:
 468:../src/interrupt_handlers.c **** 
 469:../src/interrupt_handlers.c **** //;0x0288  MTU10_TGIA10
 470:../src/interrupt_handlers.c **** void  INT_Excep_MTU10_TGIA10(void){ }
 1629                             		.loc 1 470 0
 1630                             		; Note: Interrupt Handler
 1631 0360 7E A6                   		push.l	r6
 1632                             	.LCFI216:
 1633 0362 EF 06                   		mov.L	r0, r6
 1634                             	.LCFI217:
 1635                             		.loc 1 470 0
 1636 0364 7E B6                   		pop	r6
 1637 0366 7F 95                   		rte
 1638                             	.LFE108:
 1640                             		.global	_INT_Excep_MTU10_TGIB10
 1642                             	_INT_Excep_MTU10_TGIB10:
 1643                             	.LFB109:
 471:../src/interrupt_handlers.c **** 
 472:../src/interrupt_handlers.c **** //;0x028C  MTU10_TGIB10
 473:../src/interrupt_handlers.c **** void  INT_Excep_MTU10_TGIB10(void){ }
 1644                             		.loc 1 473 0
 1645                             		; Note: Interrupt Handler
 1646 0368 7E A6                   		push.l	r6
 1647                             	.LCFI218:
 1648 036a EF 06                   		mov.L	r0, r6
 1649                             	.LCFI219:
 1650                             		.loc 1 473 0
 1651 036c 7E B6                   		pop	r6
 1652 036e 7F 95                   		rte
 1653                             	.LFE109:
 1655                             		.global	_INT_Excep_MTU10_TGIC10
 1657                             	_INT_Excep_MTU10_TGIC10:
 1658                             	.LFB110:
 474:../src/interrupt_handlers.c **** 
 475:../src/interrupt_handlers.c **** //;0x0290  MTU10_TGIC10
 476:../src/interrupt_handlers.c **** void  INT_Excep_MTU10_TGIC10(void){ }
 1659                             		.loc 1 476 0
 1660                             		; Note: Interrupt Handler
 1661 0370 7E A6                   		push.l	r6
 1662                             	.LCFI220:
 1663 0372 EF 06                   		mov.L	r0, r6
 1664                             	.LCFI221:
 1665                             		.loc 1 476 0
 1666 0374 7E B6                   		pop	r6
 1667 0376 7F 95                   		rte
 1668                             	.LFE110:
 1670                             		.global	_INT_Excep_MTU10_TGID10
 1672                             	_INT_Excep_MTU10_TGID10:
 1673                             	.LFB111:
 477:../src/interrupt_handlers.c **** 
 478:../src/interrupt_handlers.c **** //;0x0294  MTU10_TGID10
 479:../src/interrupt_handlers.c **** void  INT_Excep_MTU10_TGID10(void){ }    
 1674                             		.loc 1 479 0
 1675                             		; Note: Interrupt Handler
 1676 0378 7E A6                   		push.l	r6
 1677                             	.LCFI222:
 1678 037a EF 06                   		mov.L	r0, r6
 1679                             	.LCFI223:
 1680                             		.loc 1 479 0
 1681 037c 7E B6                   		pop	r6
 1682 037e 7F 95                   		rte
 1683                             	.LFE111:
 1685                             		.global	_INT_Excep_MTU10_TCIV10
 1687                             	_INT_Excep_MTU10_TCIV10:
 1688                             	.LFB112:
 480:../src/interrupt_handlers.c **** 
 481:../src/interrupt_handlers.c **** //;0x0298  MTU10_TCIV10
 482:../src/interrupt_handlers.c **** void  INT_Excep_MTU10_TCIV10(void){ }    
 1689                             		.loc 1 482 0
 1690                             		; Note: Interrupt Handler
 1691 0380 7E A6                   		push.l	r6
 1692                             	.LCFI224:
 1693 0382 EF 06                   		mov.L	r0, r6
 1694                             	.LCFI225:
 1695                             		.loc 1 482 0
 1696 0384 7E B6                   		pop	r6
 1697 0386 7F 95                   		rte
 1698                             	.LFE112:
 1700                             		.global	_INT_Excep_MTU11_TGIU11
 1702                             	_INT_Excep_MTU11_TGIU11:
 1703                             	.LFB113:
 483:../src/interrupt_handlers.c **** 
 484:../src/interrupt_handlers.c **** //;0x029C  MTU11_TGIU11
 485:../src/interrupt_handlers.c **** void  INT_Excep_MTU11_TGIU11(void){ }
 1704                             		.loc 1 485 0
 1705                             		; Note: Interrupt Handler
 1706 0388 7E A6                   		push.l	r6
 1707                             	.LCFI226:
 1708 038a EF 06                   		mov.L	r0, r6
 1709                             	.LCFI227:
 1710                             		.loc 1 485 0
 1711 038c 7E B6                   		pop	r6
 1712 038e 7F 95                   		rte
 1713                             	.LFE113:
 1715                             		.global	_INT_Excep_MTU11_TGIV11
 1717                             	_INT_Excep_MTU11_TGIV11:
 1718                             	.LFB114:
 486:../src/interrupt_handlers.c **** 
 487:../src/interrupt_handlers.c **** //;0x02A0  MTU11_TGIV11
 488:../src/interrupt_handlers.c **** void  INT_Excep_MTU11_TGIV11(void){ }
 1719                             		.loc 1 488 0
 1720                             		; Note: Interrupt Handler
 1721 0390 7E A6                   		push.l	r6
 1722                             	.LCFI228:
 1723 0392 EF 06                   		mov.L	r0, r6
 1724                             	.LCFI229:
 1725                             		.loc 1 488 0
 1726 0394 7E B6                   		pop	r6
 1727 0396 7F 95                   		rte
 1728                             	.LFE114:
 1730                             		.global	_INT_Excep_MTU11_TGIW11
 1732                             	_INT_Excep_MTU11_TGIW11:
 1733                             	.LFB115:
 489:../src/interrupt_handlers.c **** 
 490:../src/interrupt_handlers.c **** //;0x02A4  MTU11_TGIW11
 491:../src/interrupt_handlers.c **** void  INT_Excep_MTU11_TGIW11(void){ }        
 1734                             		.loc 1 491 0
 1735                             		; Note: Interrupt Handler
 1736 0398 7E A6                   		push.l	r6
 1737                             	.LCFI230:
 1738 039a EF 06                   		mov.L	r0, r6
 1739                             	.LCFI231:
 1740                             		.loc 1 491 0
 1741 039c 7E B6                   		pop	r6
 1742 039e 7F 95                   		rte
 1743                             	.LFE115:
 1745                             		.global	_INT_Excep_POE_OEI1
 1747                             	_INT_Excep_POE_OEI1:
 1748                             	.LFB116:
 492:../src/interrupt_handlers.c **** 
 493:../src/interrupt_handlers.c **** //;0x02A8  POE_OEI1
 494:../src/interrupt_handlers.c **** void  INT_Excep_POE_OEI1(void){ }    
 1749                             		.loc 1 494 0
 1750                             		; Note: Interrupt Handler
 1751 03a0 7E A6                   		push.l	r6
 1752                             	.LCFI232:
 1753 03a2 EF 06                   		mov.L	r0, r6
 1754                             	.LCFI233:
 1755                             		.loc 1 494 0
 1756 03a4 7E B6                   		pop	r6
 1757 03a6 7F 95                   		rte
 1758                             	.LFE116:
 1760                             		.global	_INT_Excep_POE_OEI2
 1762                             	_INT_Excep_POE_OEI2:
 1763                             	.LFB117:
 495:../src/interrupt_handlers.c **** 
 496:../src/interrupt_handlers.c **** //;0x02AC  POE_OEI2
 497:../src/interrupt_handlers.c **** void  INT_Excep_POE_OEI2(void){ }
 1764                             		.loc 1 497 0
 1765                             		; Note: Interrupt Handler
 1766 03a8 7E A6                   		push.l	r6
 1767                             	.LCFI234:
 1768 03aa EF 06                   		mov.L	r0, r6
 1769                             	.LCFI235:
 1770                             		.loc 1 497 0
 1771 03ac 7E B6                   		pop	r6
 1772 03ae 7F 95                   		rte
 1773                             	.LFE117:
 1775                             		.global	_INT_Excep_POE_OEI3
 1777                             	_INT_Excep_POE_OEI3:
 1778                             	.LFB118:
 498:../src/interrupt_handlers.c **** 
 499:../src/interrupt_handlers.c **** //;0x02B0  POE_OEI3
 500:../src/interrupt_handlers.c **** void  INT_Excep_POE_OEI3(void){ }
 1779                             		.loc 1 500 0
 1780                             		; Note: Interrupt Handler
 1781 03b0 7E A6                   		push.l	r6
 1782                             	.LCFI236:
 1783 03b2 EF 06                   		mov.L	r0, r6
 1784                             	.LCFI237:
 1785                             		.loc 1 500 0
 1786 03b4 7E B6                   		pop	r6
 1787 03b6 7F 95                   		rte
 1788                             	.LFE118:
 1790                             		.global	_INT_Excep_POE_OEI4
 1792                             	_INT_Excep_POE_OEI4:
 1793                             	.LFB119:
 501:../src/interrupt_handlers.c **** 
 502:../src/interrupt_handlers.c **** //;0x02B4  POE_OEI4
 503:../src/interrupt_handlers.c **** void  INT_Excep_POE_OEI4(void){ }
 1794                             		.loc 1 503 0
 1795                             		; Note: Interrupt Handler
 1796 03b8 7E A6                   		push.l	r6
 1797                             	.LCFI238:
 1798 03ba EF 06                   		mov.L	r0, r6
 1799                             	.LCFI239:
 1800                             		.loc 1 503 0
 1801 03bc 7E B6                   		pop	r6
 1802 03be 7F 95                   		rte
 1803                             	.LFE119:
 1805                             		.global	_INT_Excep_TMR0_CMIA0
 1807                             	_INT_Excep_TMR0_CMIA0:
 1808                             	.LFB120:
 504:../src/interrupt_handlers.c **** 
 505:../src/interrupt_handlers.c **** //;0x02B8  TMR0_CMI0A
 506:../src/interrupt_handlers.c **** void  INT_Excep_TMR0_CMIA0(void){ }    
 1809                             		.loc 1 506 0
 1810                             		; Note: Interrupt Handler
 1811 03c0 7E A6                   		push.l	r6
 1812                             	.LCFI240:
 1813 03c2 EF 06                   		mov.L	r0, r6
 1814                             	.LCFI241:
 1815                             		.loc 1 506 0
 1816 03c4 7E B6                   		pop	r6
 1817 03c6 7F 95                   		rte
 1818                             	.LFE120:
 1820                             		.global	_INT_Excep_TMR0_CMIB0
 1822                             	_INT_Excep_TMR0_CMIB0:
 1823                             	.LFB121:
 507:../src/interrupt_handlers.c **** 
 508:../src/interrupt_handlers.c **** //;0x02BC  TMR0_CMI0B
 509:../src/interrupt_handlers.c **** void  INT_Excep_TMR0_CMIB0(void){ }    
 1824                             		.loc 1 509 0
 1825                             		; Note: Interrupt Handler
 1826 03c8 7E A6                   		push.l	r6
 1827                             	.LCFI242:
 1828 03ca EF 06                   		mov.L	r0, r6
 1829                             	.LCFI243:
 1830                             		.loc 1 509 0
 1831 03cc 7E B6                   		pop	r6
 1832 03ce 7F 95                   		rte
 1833                             	.LFE121:
 1835                             		.global	_INT_Excep_TMR0_OVI0
 1837                             	_INT_Excep_TMR0_OVI0:
 1838                             	.LFB122:
 510:../src/interrupt_handlers.c **** 
 511:../src/interrupt_handlers.c **** //;0x02C0  TMR0_OV0I
 512:../src/interrupt_handlers.c **** void  INT_Excep_TMR0_OVI0(void){ }
 1839                             		.loc 1 512 0
 1840                             		; Note: Interrupt Handler
 1841 03d0 7E A6                   		push.l	r6
 1842                             	.LCFI244:
 1843 03d2 EF 06                   		mov.L	r0, r6
 1844                             	.LCFI245:
 1845                             		.loc 1 512 0
 1846 03d4 7E B6                   		pop	r6
 1847 03d6 7F 95                   		rte
 1848                             	.LFE122:
 1850                             		.global	_INT_Excep_TMR1_CMIA1
 1852                             	_INT_Excep_TMR1_CMIA1:
 1853                             	.LFB123:
 513:../src/interrupt_handlers.c **** 
 514:../src/interrupt_handlers.c **** //;0x02C4  TMR1_CMI1A
 515:../src/interrupt_handlers.c **** void  INT_Excep_TMR1_CMIA1(void){ }
 1854                             		.loc 1 515 0
 1855                             		; Note: Interrupt Handler
 1856 03d8 7E A6                   		push.l	r6
 1857                             	.LCFI246:
 1858 03da EF 06                   		mov.L	r0, r6
 1859                             	.LCFI247:
 1860                             		.loc 1 515 0
 1861 03dc 7E B6                   		pop	r6
 1862 03de 7F 95                   		rte
 1863                             	.LFE123:
 1865                             		.global	_INT_Excep_TMR1_CMIB1
 1867                             	_INT_Excep_TMR1_CMIB1:
 1868                             	.LFB124:
 516:../src/interrupt_handlers.c **** 
 517:../src/interrupt_handlers.c **** //;0x02C8  TMR1_CMI1B
 518:../src/interrupt_handlers.c **** void  INT_Excep_TMR1_CMIB1(void){ }
 1869                             		.loc 1 518 0
 1870                             		; Note: Interrupt Handler
 1871 03e0 7E A6                   		push.l	r6
 1872                             	.LCFI248:
 1873 03e2 EF 06                   		mov.L	r0, r6
 1874                             	.LCFI249:
 1875                             		.loc 1 518 0
 1876 03e4 7E B6                   		pop	r6
 1877 03e6 7F 95                   		rte
 1878                             	.LFE124:
 1880                             		.global	_INT_Excep_TMR1_OVI1
 1882                             	_INT_Excep_TMR1_OVI1:
 1883                             	.LFB125:
 519:../src/interrupt_handlers.c **** 
 520:../src/interrupt_handlers.c **** //;0x02CC  TMR1_OV1I
 521:../src/interrupt_handlers.c **** void  INT_Excep_TMR1_OVI1(void){ }
 1884                             		.loc 1 521 0
 1885                             		; Note: Interrupt Handler
 1886 03e8 7E A6                   		push.l	r6
 1887                             	.LCFI250:
 1888 03ea EF 06                   		mov.L	r0, r6
 1889                             	.LCFI251:
 1890                             		.loc 1 521 0
 1891 03ec 7E B6                   		pop	r6
 1892 03ee 7F 95                   		rte
 1893                             	.LFE125:
 1895                             		.global	_INT_Excep_TMR2_CMIA2
 1897                             	_INT_Excep_TMR2_CMIA2:
 1898                             	.LFB126:
 522:../src/interrupt_handlers.c **** 
 523:../src/interrupt_handlers.c **** //;0x02D0 TMR2_CMI2A
 524:../src/interrupt_handlers.c **** void  INT_Excep_TMR2_CMIA2(void){ }
 1899                             		.loc 1 524 0
 1900                             		; Note: Interrupt Handler
 1901 03f0 7E A6                   		push.l	r6
 1902                             	.LCFI252:
 1903 03f2 EF 06                   		mov.L	r0, r6
 1904                             	.LCFI253:
 1905                             		.loc 1 524 0
 1906 03f4 7E B6                   		pop	r6
 1907 03f6 7F 95                   		rte
 1908                             	.LFE126:
 1910                             		.global	_INT_Excep_TMR2_CMIB2
 1912                             	_INT_Excep_TMR2_CMIB2:
 1913                             	.LFB127:
 525:../src/interrupt_handlers.c **** 
 526:../src/interrupt_handlers.c **** //;0x02D4  TMR2_CMI2B
 527:../src/interrupt_handlers.c **** void  INT_Excep_TMR2_CMIB2(void){ }
 1914                             		.loc 1 527 0
 1915                             		; Note: Interrupt Handler
 1916 03f8 7E A6                   		push.l	r6
 1917                             	.LCFI254:
 1918 03fa EF 06                   		mov.L	r0, r6
 1919                             	.LCFI255:
 1920                             		.loc 1 527 0
 1921 03fc 7E B6                   		pop	r6
 1922 03fe 7F 95                   		rte
 1923                             	.LFE127:
 1925                             		.global	_INT_Excep_TMR2_OVI2
 1927                             	_INT_Excep_TMR2_OVI2:
 1928                             	.LFB128:
 528:../src/interrupt_handlers.c **** 
 529:../src/interrupt_handlers.c **** //;0x02D8  TMR2_OV2I
 530:../src/interrupt_handlers.c **** void  INT_Excep_TMR2_OVI2(void){ }
 1929                             		.loc 1 530 0
 1930                             		; Note: Interrupt Handler
 1931 0400 7E A6                   		push.l	r6
 1932                             	.LCFI256:
 1933 0402 EF 06                   		mov.L	r0, r6
 1934                             	.LCFI257:
 1935                             		.loc 1 530 0
 1936 0404 7E B6                   		pop	r6
 1937 0406 7F 95                   		rte
 1938                             	.LFE128:
 1940                             		.global	_INT_Excep_TMR3_CMIA3
 1942                             	_INT_Excep_TMR3_CMIA3:
 1943                             	.LFB129:
 531:../src/interrupt_handlers.c **** 
 532:../src/interrupt_handlers.c **** //;0x02DC  TMR3_CMI3A
 533:../src/interrupt_handlers.c **** void  INT_Excep_TMR3_CMIA3(void){ }
 1944                             		.loc 1 533 0
 1945                             		; Note: Interrupt Handler
 1946 0408 7E A6                   		push.l	r6
 1947                             	.LCFI258:
 1948 040a EF 06                   		mov.L	r0, r6
 1949                             	.LCFI259:
 1950                             		.loc 1 533 0
 1951 040c 7E B6                   		pop	r6
 1952 040e 7F 95                   		rte
 1953                             	.LFE129:
 1955                             		.global	_INT_Excep_TMR3_CMIB3
 1957                             	_INT_Excep_TMR3_CMIB3:
 1958                             	.LFB130:
 534:../src/interrupt_handlers.c **** 
 535:../src/interrupt_handlers.c **** //;0x02E0 TMR3_CMI3B
 536:../src/interrupt_handlers.c **** void  INT_Excep_TMR3_CMIB3(void){ }
 1959                             		.loc 1 536 0
 1960                             		; Note: Interrupt Handler
 1961 0410 7E A6                   		push.l	r6
 1962                             	.LCFI260:
 1963 0412 EF 06                   		mov.L	r0, r6
 1964                             	.LCFI261:
 1965                             		.loc 1 536 0
 1966 0414 7E B6                   		pop	r6
 1967 0416 7F 95                   		rte
 1968                             	.LFE130:
 1970                             		.global	_INT_Excep_TMR3_OVI3
 1972                             	_INT_Excep_TMR3_OVI3:
 1973                             	.LFB131:
 537:../src/interrupt_handlers.c **** 
 538:../src/interrupt_handlers.c **** //;0x02E4  TMR3_OV3I
 539:../src/interrupt_handlers.c **** void  INT_Excep_TMR3_OVI3(void){ }
 1974                             		.loc 1 539 0
 1975                             		; Note: Interrupt Handler
 1976 0418 7E A6                   		push.l	r6
 1977                             	.LCFI262:
 1978 041a EF 06                   		mov.L	r0, r6
 1979                             	.LCFI263:
 1980                             		.loc 1 539 0
 1981 041c 7E B6                   		pop	r6
 1982 041e 7F 95                   		rte
 1983                             	.LFE131:
 1985                             		.global	_INT_Excep_DMAC_DMAC0I
 1987                             	_INT_Excep_DMAC_DMAC0I:
 1988                             	.LFB132:
 540:../src/interrupt_handlers.c **** 
 541:../src/interrupt_handlers.c **** //;0x02E8  Reserved
 542:../src/interrupt_handlers.c ****     
 543:../src/interrupt_handlers.c **** //;0x02EC  Reserved
 544:../src/interrupt_handlers.c ****     
 545:../src/interrupt_handlers.c **** //;0x02F0  Reserved
 546:../src/interrupt_handlers.c ****     
 547:../src/interrupt_handlers.c **** //;0x02F4  Reserved
 548:../src/interrupt_handlers.c ****     
 549:../src/interrupt_handlers.c **** //;0x02F8  Reserved
 550:../src/interrupt_handlers.c ****     
 551:../src/interrupt_handlers.c **** //;0x02FC  Reserved
 552:../src/interrupt_handlers.c ****     
 553:../src/interrupt_handlers.c **** //;0x0300  Reserved
 554:../src/interrupt_handlers.c ****     
 555:../src/interrupt_handlers.c **** //;0x0304  Reserved
 556:../src/interrupt_handlers.c ****     
 557:../src/interrupt_handlers.c **** //;0x0308  Reserved
 558:../src/interrupt_handlers.c ****     
 559:../src/interrupt_handlers.c **** //;0x030C  Reserved
 560:../src/interrupt_handlers.c ****     
 561:../src/interrupt_handlers.c **** //;0x0310  Reserved
 562:../src/interrupt_handlers.c ****     
 563:../src/interrupt_handlers.c **** //;0x0314  Reserved
 564:../src/interrupt_handlers.c ****     
 565:../src/interrupt_handlers.c **** //;0x0318  DMAC_DMTEND0
 566:../src/interrupt_handlers.c **** void  INT_Excep_DMAC_DMAC0I(void){ }
 1989                             		.loc 1 566 0
 1990                             		; Note: Interrupt Handler
 1991 0420 7E A6                   		push.l	r6
 1992                             	.LCFI264:
 1993 0422 EF 06                   		mov.L	r0, r6
 1994                             	.LCFI265:
 1995                             		.loc 1 566 0
 1996 0424 7E B6                   		pop	r6
 1997 0426 7F 95                   		rte
 1998                             	.LFE132:
 2000                             		.global	_INT_Excep_DMAC_DMAC1I
 2002                             	_INT_Excep_DMAC_DMAC1I:
 2003                             	.LFB133:
 567:../src/interrupt_handlers.c **** 
 568:../src/interrupt_handlers.c **** //;0x031C  DMAC_DMTEND1
 569:../src/interrupt_handlers.c **** void  INT_Excep_DMAC_DMAC1I(void){ }
 2004                             		.loc 1 569 0
 2005                             		; Note: Interrupt Handler
 2006 0428 7E A6                   		push.l	r6
 2007                             	.LCFI266:
 2008 042a EF 06                   		mov.L	r0, r6
 2009                             	.LCFI267:
 2010                             		.loc 1 569 0
 2011 042c 7E B6                   		pop	r6
 2012 042e 7F 95                   		rte
 2013                             	.LFE133:
 2015                             		.global	_INT_Excep_DMAC_DMAC2I
 2017                             	_INT_Excep_DMAC_DMAC2I:
 2018                             	.LFB134:
 570:../src/interrupt_handlers.c **** 
 571:../src/interrupt_handlers.c **** //;0x0320  DMAC_DMTEND2
 572:../src/interrupt_handlers.c **** void  INT_Excep_DMAC_DMAC2I(void){ }    
 2019                             		.loc 1 572 0
 2020                             		; Note: Interrupt Handler
 2021 0430 7E A6                   		push.l	r6
 2022                             	.LCFI268:
 2023 0432 EF 06                   		mov.L	r0, r6
 2024                             	.LCFI269:
 2025                             		.loc 1 572 0
 2026 0434 7E B6                   		pop	r6
 2027 0436 7F 95                   		rte
 2028                             	.LFE134:
 2030                             		.global	_INT_Excep_DMAC_DMAC3I
 2032                             	_INT_Excep_DMAC_DMAC3I:
 2033                             	.LFB135:
 573:../src/interrupt_handlers.c **** 
 574:../src/interrupt_handlers.c **** //;0x0324  DMAC_DMTEND3    
 575:../src/interrupt_handlers.c **** void  INT_Excep_DMAC_DMAC3I(void){ }
 2034                             		.loc 1 575 0
 2035                             		; Note: Interrupt Handler
 2036 0438 7E A6                   		push.l	r6
 2037                             	.LCFI270:
 2038 043a EF 06                   		mov.L	r0, r6
 2039                             	.LCFI271:
 2040                             		.loc 1 575 0
 2041 043c 7E B6                   		pop	r6
 2042 043e 7F 95                   		rte
 2043                             	.LFE135:
 2045                             		.global	_INT_Excep_EXDMAC_EXDMAC0I
 2047                             	_INT_Excep_EXDMAC_EXDMAC0I:
 2048                             	.LFB136:
 576:../src/interrupt_handlers.c **** 
 577:../src/interrupt_handlers.c **** //;0x0328  Reserved
 578:../src/interrupt_handlers.c **** void  INT_Excep_EXDMAC_EXDMAC0I(void){ }
 2049                             		.loc 1 578 0
 2050                             		; Note: Interrupt Handler
 2051 0440 7E A6                   		push.l	r6
 2052                             	.LCFI272:
 2053 0442 EF 06                   		mov.L	r0, r6
 2054                             	.LCFI273:
 2055                             		.loc 1 578 0
 2056 0444 7E B6                   		pop	r6
 2057 0446 7F 95                   		rte
 2058                             	.LFE136:
 2060                             		.global	_INT_Excep_EXDMAC_EXDMAC1I
 2062                             	_INT_Excep_EXDMAC_EXDMAC1I:
 2063                             	.LFB137:
 579:../src/interrupt_handlers.c **** 
 580:../src/interrupt_handlers.c **** //;0x032C  Reserved
 581:../src/interrupt_handlers.c **** void  INT_Excep_EXDMAC_EXDMAC1I(void){ }    
 2064                             		.loc 1 581 0
 2065                             		; Note: Interrupt Handler
 2066 0448 7E A6                   		push.l	r6
 2067                             	.LCFI274:
 2068 044a EF 06                   		mov.L	r0, r6
 2069                             	.LCFI275:
 2070                             		.loc 1 581 0
 2071 044c 7E B6                   		pop	r6
 2072 044e 7F 95                   		rte
 2073                             	.LFE137:
 2075                             		.global	_INT_Excep_SCI0_ERI0
 2077                             	_INT_Excep_SCI0_ERI0:
 2078                             	.LFB138:
 582:../src/interrupt_handlers.c **** 
 583:../src/interrupt_handlers.c **** //;0x0330  Reserved
 584:../src/interrupt_handlers.c ****     
 585:../src/interrupt_handlers.c **** //;0x0334  Reserved
 586:../src/interrupt_handlers.c ****     
 587:../src/interrupt_handlers.c **** //;0x0338  Reserved
 588:../src/interrupt_handlers.c ****     
 589:../src/interrupt_handlers.c **** //;0x033C  Reserved
 590:../src/interrupt_handlers.c ****     
 591:../src/interrupt_handlers.c **** //;0x0340  Reserved
 592:../src/interrupt_handlers.c ****     
 593:../src/interrupt_handlers.c **** //;0x0344  Reserved
 594:../src/interrupt_handlers.c ****     
 595:../src/interrupt_handlers.c **** //;0x0348  Reserved
 596:../src/interrupt_handlers.c ****     
 597:../src/interrupt_handlers.c **** //;0x034C  Reserved
 598:../src/interrupt_handlers.c ****     
 599:../src/interrupt_handlers.c **** //;0x0350  Reserved
 600:../src/interrupt_handlers.c ****     
 601:../src/interrupt_handlers.c **** //;0x0354  Reserved
 602:../src/interrupt_handlers.c ****     
 603:../src/interrupt_handlers.c **** //;0x0358  SCI0_ERI0
 604:../src/interrupt_handlers.c **** void  INT_Excep_SCI0_ERI0(void){ }
 2079                             		.loc 1 604 0
 2080                             		; Note: Interrupt Handler
 2081 0450 7E A6                   		push.l	r6
 2082                             	.LCFI276:
 2083 0452 EF 06                   		mov.L	r0, r6
 2084                             	.LCFI277:
 2085                             		.loc 1 604 0
 2086 0454 7E B6                   		pop	r6
 2087 0456 7F 95                   		rte
 2088                             	.LFE138:
 2090                             		.global	_INT_Excep_SCI0_RXI0
 2092                             	_INT_Excep_SCI0_RXI0:
 2093                             	.LFB139:
 605:../src/interrupt_handlers.c **** 
 606:../src/interrupt_handlers.c **** //;0x035C  SCI0_RXI0
 607:../src/interrupt_handlers.c **** void  INT_Excep_SCI0_RXI0(void){ }
 2094                             		.loc 1 607 0
 2095                             		; Note: Interrupt Handler
 2096 0458 7E A6                   		push.l	r6
 2097                             	.LCFI278:
 2098 045a EF 06                   		mov.L	r0, r6
 2099                             	.LCFI279:
 2100                             		.loc 1 607 0
 2101 045c 7E B6                   		pop	r6
 2102 045e 7F 95                   		rte
 2103                             	.LFE139:
 2105                             		.global	_INT_Excep_SCI0_TXI0
 2107                             	_INT_Excep_SCI0_TXI0:
 2108                             	.LFB140:
 608:../src/interrupt_handlers.c **** 
 609:../src/interrupt_handlers.c **** //;0x0360  SCI0_TXI0
 610:../src/interrupt_handlers.c **** void  INT_Excep_SCI0_TXI0(void){ }    
 2109                             		.loc 1 610 0
 2110                             		; Note: Interrupt Handler
 2111 0460 7E A6                   		push.l	r6
 2112                             	.LCFI280:
 2113 0462 EF 06                   		mov.L	r0, r6
 2114                             	.LCFI281:
 2115                             		.loc 1 610 0
 2116 0464 7E B6                   		pop	r6
 2117 0466 7F 95                   		rte
 2118                             	.LFE140:
 2120                             		.global	_INT_Excep_SCI0_TEI0
 2122                             	_INT_Excep_SCI0_TEI0:
 2123                             	.LFB141:
 611:../src/interrupt_handlers.c **** 
 612:../src/interrupt_handlers.c **** //;0x0364  SCI0_TEI0
 613:../src/interrupt_handlers.c **** void  INT_Excep_SCI0_TEI0(void){ }
 2124                             		.loc 1 613 0
 2125                             		; Note: Interrupt Handler
 2126 0468 7E A6                   		push.l	r6
 2127                             	.LCFI282:
 2128 046a EF 06                   		mov.L	r0, r6
 2129                             	.LCFI283:
 2130                             		.loc 1 613 0
 2131 046c 7E B6                   		pop	r6
 2132 046e 7F 95                   		rte
 2133                             	.LFE141:
 2135                             		.global	_INT_Excep_SCI1_ERI1
 2137                             	_INT_Excep_SCI1_ERI1:
 2138                             	.LFB142:
 614:../src/interrupt_handlers.c **** 
 615:../src/interrupt_handlers.c **** //;0x0368  SCI1_ERI1
 616:../src/interrupt_handlers.c **** void  INT_Excep_SCI1_ERI1(void){ }
 2139                             		.loc 1 616 0
 2140                             		; Note: Interrupt Handler
 2141 0470 7E A6                   		push.l	r6
 2142                             	.LCFI284:
 2143 0472 EF 06                   		mov.L	r0, r6
 2144                             	.LCFI285:
 2145                             		.loc 1 616 0
 2146 0474 7E B6                   		pop	r6
 2147 0476 7F 95                   		rte
 2148                             	.LFE142:
 2150                             		.global	_INT_Excep_SCI1_RXI1
 2152                             	_INT_Excep_SCI1_RXI1:
 2153                             	.LFB143:
 617:../src/interrupt_handlers.c **** 
 618:../src/interrupt_handlers.c **** //;0x036C  SCI1_RXI1
 619:../src/interrupt_handlers.c **** void  INT_Excep_SCI1_RXI1(void){ }
 2154                             		.loc 1 619 0
 2155                             		; Note: Interrupt Handler
 2156 0478 7E A6                   		push.l	r6
 2157                             	.LCFI286:
 2158 047a EF 06                   		mov.L	r0, r6
 2159                             	.LCFI287:
 2160                             		.loc 1 619 0
 2161 047c 7E B6                   		pop	r6
 2162 047e 7F 95                   		rte
 2163                             	.LFE143:
 2165                             		.global	_INT_Excep_SCI1_TXI1
 2167                             	_INT_Excep_SCI1_TXI1:
 2168                             	.LFB144:
 620:../src/interrupt_handlers.c **** 
 621:../src/interrupt_handlers.c **** //;0x0370  SCI1_TXI1
 622:../src/interrupt_handlers.c **** void  INT_Excep_SCI1_TXI1(void){
 2169                             		.loc 1 622 0
 2170                             		; Note: Interrupt Handler
 2171 0480 6E 6C                   		pushm	r6-r12
 2172                             	.LCFI288:
 2173 0482 EF 06                   		mov.L	r0, r6
 2174                             	.LCFI289:
 623:../src/interrupt_handlers.c **** 
 624:../src/interrupt_handlers.c **** 	PORTD.DR.BIT.B0=~PORTD.DR.BIT.B0;
 2175                             		.loc 1 624 0
 2176 0484 FB AE 0D C0 08          		mov.L	#0x8c00d, r10
 2177 0489 FB BE 0D C0 08          		mov.L	#0x8c00d, r11
 2178 048e CD BB 20                		mov.B	32[r11], r11
 2179 0491 64 1B                   		and	#1, r11
 2180 0493 7E 0B                   		not	r11
 2181 0495 64 1B                   		and	#1, r11
 2182 0497 64 1B                   		and	#1, r11
 2183 0499 CD AC 20                		mov.B	32[r10], r12
 2184 049c 75 2C FE                		and	#-2, r12
 2185 049f 57 CB                   		or	r12, r11
 2186 04a1 C7 AB 20                		mov.B	r11, 32[r10]
 625:../src/interrupt_handlers.c **** 	PORTD.DR.BIT.B1=~PORTD.DR.BIT.B1;
 2187                             		.loc 1 625 0
 2188 04a4 FB AE 0D C0 08          		mov.L	#0x8c00d, r10
 2189 04a9 FB BE 0D C0 08          		mov.L	#0x8c00d, r11
 2190 04ae CD BB 20                		mov.B	32[r11], r11
 2191 04b1 5B BB                   		movu.B	r11, r11
 2192 04b3 68 1B                   		shlr	#1, r11
 2193 04b5 64 1B                   		and	#1, r11
 2194 04b7 7E 0B                   		not	r11
 2195 04b9 64 1B                   		and	#1, r11
 2196 04bb 64 1B                   		and	#1, r11
 2197 04bd 4B BB                   		add	r11, r11
 2198 04bf CD AC 20                		mov.B	32[r10], r12
 2199 04c2 75 2C FD                		and	#-3, r12
 2200 04c5 57 CB                   		or	r12, r11
 2201 04c7 C7 AB 20                		mov.B	r11, 32[r10]
 626:../src/interrupt_handlers.c **** 
 627:../src/interrupt_handlers.c **** 	if(Buf_start==Buf_end){
 2202                             		.loc 1 627 0
 2203 04ca FB A2 00 00 00 00       		mov.L	#_Buf_start, r10
 2204 04d0 DC AB                   		mov.W	[r10], r11
 2205 04d2 FB A2 00 00 00 00       		mov.L	#_Buf_end, r10
 2206 04d8 DC AA                   		mov.W	[r10], r10
 2207 04da DF BB                   		mov.W	r11, r11
 2208 04dc DF AA                   		mov.W	r10, r10
 2209 04de 47 AB                   		cmp	r10, r11
 2210 04e0 21 1F                   		bne	.L146
 628:../src/interrupt_handlers.c **** 		SCI1.SCR.BIT.TIE = 0;
 2211                             		.loc 1 628 0
 2212 04e2 FB AE 48 82 08          		mov.L	#0x88248, r10
 2213 04e7 CD AB 02                		mov.B	2[r10], r11
 2214 04ea 75 2B 7F                		and	#0x7f, r11
 2215 04ed C7 AB 02                		mov.B	r11, 2[r10]
 629:../src/interrupt_handlers.c **** 		SCI1.SCR.BIT.TEIE = 1;
 2216                             		.loc 1 629 0
 2217 04f0 FB AE 48 82 08          		mov.L	#0x88248, r10
 2218 04f5 CD AB 02                		mov.B	2[r10], r11
 2219 04f8 65 4B                   		or	#4, r11
 2220 04fa C7 AB 02                		mov.B	r11, 2[r10]
 2221 04fd 2E 57                   		bra	.L145
 2222                             	.L146:
 630:../src/interrupt_handlers.c **** 	}
 631:../src/interrupt_handlers.c **** 	else{
 632:../src/interrupt_handlers.c **** 
 633:../src/interrupt_handlers.c **** 		SCI1.TDR=Buf[Buf_start];
 2223                             		.loc 1 633 0
 2224 04ff FB AE 48 82 08          		mov.L	#0x88248, r10
 2225 0504 FB B2 00 00 00 00       		mov.L	#_Buf_start, r11
 2226 050a DC BB                   		mov.W	[r11], r11
 2227 050c DF BB                   		mov.W	r11, r11
 2228 050e FB C2 00 00 00 00       		mov.L	#_Buf, r12
 2229 0514 FE 4B CB                		mov.B	[r11,r12], r11
 2230 0517 C7 AB 03                		mov.B	r11, 3[r10]
 634:../src/interrupt_handlers.c **** 		Buf_start++;
 2231                             		.loc 1 634 0
 2232 051a FB A2 00 00 00 00       		mov.L	#_Buf_start, r10
 2233 0520 DC AA                   		mov.W	[r10], r10
 2234 0522 62 1A                   		add	#1, r10
 2235 0524 DF AB                   		mov.W	r10, r11
 2236 0526 FB A2 00 00 00 00       		mov.L	#_Buf_start, r10
 2237 052c D3 AB                   		mov.W	r11, [r10]
 635:../src/interrupt_handlers.c **** 		Buf_start = Buf_start % BUFSIZE;
 2238                             		.loc 1 635 0
 2239 052e FB A2 00 00 00 00       		mov.L	#_Buf_start, r10
 2240 0534 DC AA                   		mov.W	[r10], r10
 2241 0536 DF AA                   		mov.W	r10, r10
 2242 0538 74 2A FF 03 00 80       		and	#0x800003ff, r10
 2243 053e 61 0A                   		cmp	#0, r10
 2244 0540 28 0A                   		bge	.L148
 2245 0542 60 1A                   		sub	#1, r10
 2246 0544 76 3A 00 FC             		or	#0xfffffc00, r10
 2247 0548 62 1A                   		add	#1, r10
 2248                             	.L148:
 2249 054a DF AB                   		mov.W	r10, r11
 2250 054c FB A2 00 00 00 00       		mov.L	#_Buf_start, r10
 2251 0552 D3 AB                   		mov.W	r11, [r10]
 2252                             	.L145:
 636:../src/interrupt_handlers.c **** 	}
 637:../src/interrupt_handlers.c **** }
 2253                             		.loc 1 637 0
 2254 0554 6F 6C                   		popm	r6-r12
 2255 0556 7F 95                   		rte
 2256                             	.LFE144:
 2258                             		.global	_INT_Excep_SCI1_TEI1
 2260                             	_INT_Excep_SCI1_TEI1:
 2261                             	.LFB145:
 638:../src/interrupt_handlers.c **** 
 639:../src/interrupt_handlers.c **** //;0x0374  SCI1_TEI1
 640:../src/interrupt_handlers.c **** void  INT_Excep_SCI1_TEI1(void){
 2262                             		.loc 1 640 0
 2263                             		; Note: Interrupt Handler
 2264 0558 7E AA                   		push.l	r10
 2265                             	.LCFI290:
 2266 055a 7E A6                   		push.l	r6
 2267                             	.LCFI291:
 2268 055c EF 06                   		mov.L	r0, r6
 2269                             	.LCFI292:
 641:../src/interrupt_handlers.c **** 	SCI1.SCR.BYTE = 0;
 2270                             		.loc 1 641 0
 2271 055e FB AE 48 82 08          		mov.L	#0x88248, r10
 2272 0563 F9 A4 02 00             		mov.B	#0, 2[r10]
 642:../src/interrupt_handlers.c **** 	SCI_stop = 1;
 2273                             		.loc 1 642 0
 2274 0567 FB A2 00 00 00 00       		mov.L	#_SCI_stop, r10
 2275 056d F8 A4 01                		mov.B	#1, [r10]
 643:../src/interrupt_handlers.c **** 
 644:../src/interrupt_handlers.c **** }
 2276                             		.loc 1 644 0
 2277 0570 7E B6                   		pop	r6
 2278 0572 7E BA                   		pop	r10
 2279 0574 7F 95                   		rte
 2280                             	.LFE145:
 2282                             		.global	_INT_Excep_SCI2_ERI2
 2284                             	_INT_Excep_SCI2_ERI2:
 2285                             	.LFB146:
 645:../src/interrupt_handlers.c **** 
 646:../src/interrupt_handlers.c **** //;0x0378  SCI2_ERI2
 647:../src/interrupt_handlers.c **** void  INT_Excep_SCI2_ERI2(void){ }        
 2286                             		.loc 1 647 0
 2287                             		; Note: Interrupt Handler
 2288 0576 7E A6                   		push.l	r6
 2289                             	.LCFI293:
 2290 0578 EF 06                   		mov.L	r0, r6
 2291                             	.LCFI294:
 2292                             		.loc 1 647 0
 2293 057a 7E B6                   		pop	r6
 2294 057c 7F 95                   		rte
 2295                             	.LFE146:
 2297                             		.global	_INT_Excep_SCI2_RXI2
 2299                             	_INT_Excep_SCI2_RXI2:
 2300                             	.LFB147:
 648:../src/interrupt_handlers.c **** 
 649:../src/interrupt_handlers.c **** //;0x037C  SCI2_RXI2
 650:../src/interrupt_handlers.c **** void  INT_Excep_SCI2_RXI2(void){ }
 2301                             		.loc 1 650 0
 2302                             		; Note: Interrupt Handler
 2303 057e 7E A6                   		push.l	r6
 2304                             	.LCFI295:
 2305 0580 EF 06                   		mov.L	r0, r6
 2306                             	.LCFI296:
 2307                             		.loc 1 650 0
 2308 0582 7E B6                   		pop	r6
 2309 0584 7F 95                   		rte
 2310                             	.LFE147:
 2312                             		.global	_INT_Excep_SCI2_TXI2
 2314                             	_INT_Excep_SCI2_TXI2:
 2315                             	.LFB148:
 651:../src/interrupt_handlers.c **** 
 652:../src/interrupt_handlers.c **** //;0x0380  SCI2_TXI2
 653:../src/interrupt_handlers.c **** void  INT_Excep_SCI2_TXI2(void){ }
 2316                             		.loc 1 653 0
 2317                             		; Note: Interrupt Handler
 2318 0586 7E A6                   		push.l	r6
 2319                             	.LCFI297:
 2320 0588 EF 06                   		mov.L	r0, r6
 2321                             	.LCFI298:
 2322                             		.loc 1 653 0
 2323 058a 7E B6                   		pop	r6
 2324 058c 7F 95                   		rte
 2325                             	.LFE148:
 2327                             		.global	_INT_Excep_SCI2_TEI2
 2329                             	_INT_Excep_SCI2_TEI2:
 2330                             	.LFB149:
 654:../src/interrupt_handlers.c **** 
 655:../src/interrupt_handlers.c **** //;0x0384  SCI2_TEI2
 656:../src/interrupt_handlers.c **** void  INT_Excep_SCI2_TEI2(void){ }
 2331                             		.loc 1 656 0
 2332                             		; Note: Interrupt Handler
 2333 058e 7E A6                   		push.l	r6
 2334                             	.LCFI299:
 2335 0590 EF 06                   		mov.L	r0, r6
 2336                             	.LCFI300:
 2337                             		.loc 1 656 0
 2338 0592 7E B6                   		pop	r6
 2339 0594 7F 95                   		rte
 2340                             	.LFE149:
 2342                             		.global	_INT_Excep_SCI3_ERI3
 2344                             	_INT_Excep_SCI3_ERI3:
 2345                             	.LFB150:
 657:../src/interrupt_handlers.c **** 
 658:../src/interrupt_handlers.c **** //;0x0388  SCI3_ERI3
 659:../src/interrupt_handlers.c **** void  INT_Excep_SCI3_ERI3(void){ }
 2346                             		.loc 1 659 0
 2347                             		; Note: Interrupt Handler
 2348 0596 7E A6                   		push.l	r6
 2349                             	.LCFI301:
 2350 0598 EF 06                   		mov.L	r0, r6
 2351                             	.LCFI302:
 2352                             		.loc 1 659 0
 2353 059a 7E B6                   		pop	r6
 2354 059c 7F 95                   		rte
 2355                             	.LFE150:
 2357                             		.global	_INT_Excep_SCI3_RXI3
 2359                             	_INT_Excep_SCI3_RXI3:
 2360                             	.LFB151:
 660:../src/interrupt_handlers.c **** 
 661:../src/interrupt_handlers.c **** //;0x038C  SCI3_RXI3
 662:../src/interrupt_handlers.c **** void  INT_Excep_SCI3_RXI3(void){ }
 2361                             		.loc 1 662 0
 2362                             		; Note: Interrupt Handler
 2363 059e 7E A6                   		push.l	r6
 2364                             	.LCFI303:
 2365 05a0 EF 06                   		mov.L	r0, r6
 2366                             	.LCFI304:
 2367                             		.loc 1 662 0
 2368 05a2 7E B6                   		pop	r6
 2369 05a4 7F 95                   		rte
 2370                             	.LFE151:
 2372                             		.global	_INT_Excep_SCI3_TXI3
 2374                             	_INT_Excep_SCI3_TXI3:
 2375                             	.LFB152:
 663:../src/interrupt_handlers.c **** 
 664:../src/interrupt_handlers.c **** //;0x0390  SCI3_TXI3
 665:../src/interrupt_handlers.c **** void  INT_Excep_SCI3_TXI3(void){ }
 2376                             		.loc 1 665 0
 2377                             		; Note: Interrupt Handler
 2378 05a6 7E A6                   		push.l	r6
 2379                             	.LCFI305:
 2380 05a8 EF 06                   		mov.L	r0, r6
 2381                             	.LCFI306:
 2382                             		.loc 1 665 0
 2383 05aa 7E B6                   		pop	r6
 2384 05ac 7F 95                   		rte
 2385                             	.LFE152:
 2387                             		.global	_INT_Excep_SCI3_TEI3
 2389                             	_INT_Excep_SCI3_TEI3:
 2390                             	.LFB153:
 666:../src/interrupt_handlers.c **** 
 667:../src/interrupt_handlers.c **** //;0x0394  SCI3_TEI3
 668:../src/interrupt_handlers.c **** void  INT_Excep_SCI3_TEI3(void){ }
 2391                             		.loc 1 668 0
 2392                             		; Note: Interrupt Handler
 2393 05ae 7E A6                   		push.l	r6
 2394                             	.LCFI307:
 2395 05b0 EF 06                   		mov.L	r0, r6
 2396                             	.LCFI308:
 2397                             		.loc 1 668 0
 2398 05b2 7E B6                   		pop	r6
 2399 05b4 7F 95                   		rte
 2400                             	.LFE153:
 2402                             		.global	_INT_Excep_SCI5_ERI5
 2404                             	_INT_Excep_SCI5_ERI5:
 2405                             	.LFB154:
 669:../src/interrupt_handlers.c **** 
 670:../src/interrupt_handlers.c **** //;0x0398  Reserved                        
 671:../src/interrupt_handlers.c **** 
 672:../src/interrupt_handlers.c **** //;0x039C  Reserved
 673:../src/interrupt_handlers.c ****         
 674:../src/interrupt_handlers.c **** //;0x03A0  Reserved
 675:../src/interrupt_handlers.c ****     
 676:../src/interrupt_handlers.c **** //;0x03A4  Reserved
 677:../src/interrupt_handlers.c ****     
 678:../src/interrupt_handlers.c **** //;0x03A8  SCI5_ERI5
 679:../src/interrupt_handlers.c **** void  INT_Excep_SCI5_ERI5(void){ }        
 2406                             		.loc 1 679 0
 2407                             		; Note: Interrupt Handler
 2408 05b6 7E A6                   		push.l	r6
 2409                             	.LCFI309:
 2410 05b8 EF 06                   		mov.L	r0, r6
 2411                             	.LCFI310:
 2412                             		.loc 1 679 0
 2413 05ba 7E B6                   		pop	r6
 2414 05bc 7F 95                   		rte
 2415                             	.LFE154:
 2417                             		.global	_INT_Excep_SCI5_RXI5
 2419                             	_INT_Excep_SCI5_RXI5:
 2420                             	.LFB155:
 680:../src/interrupt_handlers.c **** 
 681:../src/interrupt_handlers.c **** //;0x03AC  SCI5_RXI5
 682:../src/interrupt_handlers.c **** void  INT_Excep_SCI5_RXI5(void){ }
 2421                             		.loc 1 682 0
 2422                             		; Note: Interrupt Handler
 2423 05be 7E A6                   		push.l	r6
 2424                             	.LCFI311:
 2425 05c0 EF 06                   		mov.L	r0, r6
 2426                             	.LCFI312:
 2427                             		.loc 1 682 0
 2428 05c2 7E B6                   		pop	r6
 2429 05c4 7F 95                   		rte
 2430                             	.LFE155:
 2432                             		.global	_INT_Excep_SCI5_TXI5
 2434                             	_INT_Excep_SCI5_TXI5:
 2435                             	.LFB156:
 683:../src/interrupt_handlers.c **** 
 684:../src/interrupt_handlers.c **** //;0x03B0  SCI5_TXI5
 685:../src/interrupt_handlers.c **** void  INT_Excep_SCI5_TXI5(void){ }
 2436                             		.loc 1 685 0
 2437                             		; Note: Interrupt Handler
 2438 05c6 7E A6                   		push.l	r6
 2439                             	.LCFI313:
 2440 05c8 EF 06                   		mov.L	r0, r6
 2441                             	.LCFI314:
 2442                             		.loc 1 685 0
 2443 05ca 7E B6                   		pop	r6
 2444 05cc 7F 95                   		rte
 2445                             	.LFE156:
 2447                             		.global	_INT_Excep_SCI5_TEI5
 2449                             	_INT_Excep_SCI5_TEI5:
 2450                             	.LFB157:
 686:../src/interrupt_handlers.c **** 
 687:../src/interrupt_handlers.c **** //;0x03B4  SCI5_TEI5
 688:../src/interrupt_handlers.c **** void  INT_Excep_SCI5_TEI5(void){ }
 2451                             		.loc 1 688 0
 2452                             		; Note: Interrupt Handler
 2453 05ce 7E A6                   		push.l	r6
 2454                             	.LCFI315:
 2455 05d0 EF 06                   		mov.L	r0, r6
 2456                             	.LCFI316:
 2457                             		.loc 1 688 0
 2458 05d2 7E B6                   		pop	r6
 2459 05d4 7F 95                   		rte
 2460                             	.LFE157:
 2462                             		.global	_INT_Excep_SCI6_ERI6
 2464                             	_INT_Excep_SCI6_ERI6:
 2465                             	.LFB158:
 689:../src/interrupt_handlers.c **** 
 690:../src/interrupt_handlers.c **** //;0x03B8  SCI6_ERI6
 691:../src/interrupt_handlers.c **** void  INT_Excep_SCI6_ERI6(void){ }
 2466                             		.loc 1 691 0
 2467                             		; Note: Interrupt Handler
 2468 05d6 7E A6                   		push.l	r6
 2469                             	.LCFI317:
 2470 05d8 EF 06                   		mov.L	r0, r6
 2471                             	.LCFI318:
 2472                             		.loc 1 691 0
 2473 05da 7E B6                   		pop	r6
 2474 05dc 7F 95                   		rte
 2475                             	.LFE158:
 2477                             		.global	_INT_Excep_SCI6_RXI6
 2479                             	_INT_Excep_SCI6_RXI6:
 2480                             	.LFB159:
 692:../src/interrupt_handlers.c **** 
 693:../src/interrupt_handlers.c **** //;0x03BC  SCI6_RXI6
 694:../src/interrupt_handlers.c **** void  INT_Excep_SCI6_RXI6(void){ }
 2481                             		.loc 1 694 0
 2482                             		; Note: Interrupt Handler
 2483 05de 7E A6                   		push.l	r6
 2484                             	.LCFI319:
 2485 05e0 EF 06                   		mov.L	r0, r6
 2486                             	.LCFI320:
 2487                             		.loc 1 694 0
 2488 05e2 7E B6                   		pop	r6
 2489 05e4 7F 95                   		rte
 2490                             	.LFE159:
 2492                             		.global	_INT_Excep_SCI6_TXI6
 2494                             	_INT_Excep_SCI6_TXI6:
 2495                             	.LFB160:
 695:../src/interrupt_handlers.c **** 
 696:../src/interrupt_handlers.c **** //;0x03C0  SCI6_TXI6
 697:../src/interrupt_handlers.c **** void  INT_Excep_SCI6_TXI6(void){ }
 2496                             		.loc 1 697 0
 2497                             		; Note: Interrupt Handler
 2498 05e6 7E A6                   		push.l	r6
 2499                             	.LCFI321:
 2500 05e8 EF 06                   		mov.L	r0, r6
 2501                             	.LCFI322:
 2502                             		.loc 1 697 0
 2503 05ea 7E B6                   		pop	r6
 2504 05ec 7F 95                   		rte
 2505                             	.LFE160:
 2507                             		.global	_INT_Excep_SCI6_TEI6
 2509                             	_INT_Excep_SCI6_TEI6:
 2510                             	.LFB161:
 698:../src/interrupt_handlers.c **** 
 699:../src/interrupt_handlers.c **** //;0x03C4  SCI6_TEI6
 700:../src/interrupt_handlers.c **** void  INT_Excep_SCI6_TEI6(void){ }
 2511                             		.loc 1 700 0
 2512                             		; Note: Interrupt Handler
 2513 05ee 7E A6                   		push.l	r6
 2514                             	.LCFI323:
 2515 05f0 EF 06                   		mov.L	r0, r6
 2516                             	.LCFI324:
 2517                             		.loc 1 700 0
 2518 05f2 7E B6                   		pop	r6
 2519 05f4 7F 95                   		rte
 2520                             	.LFE161:
 2522                             		.global	_INT_Excep_RIIC0_ICEEI0
 2524                             	_INT_Excep_RIIC0_ICEEI0:
 2525                             	.LFB162:
 701:../src/interrupt_handlers.c **** 
 702:../src/interrupt_handlers.c **** //;0x03C8  Reserved
 703:../src/interrupt_handlers.c **** 
 704:../src/interrupt_handlers.c **** //;0x03CC  Reserved
 705:../src/interrupt_handlers.c ****     
 706:../src/interrupt_handlers.c **** //;0x03D0  Reserved
 707:../src/interrupt_handlers.c ****     
 708:../src/interrupt_handlers.c **** //;0x03D4  Reserved
 709:../src/interrupt_handlers.c ****     
 710:../src/interrupt_handlers.c **** //;0x03D8  RIIC0_ICEEI0
 711:../src/interrupt_handlers.c **** void  INT_Excep_RIIC0_ICEEI0(void){ }
 2526                             		.loc 1 711 0
 2527                             		; Note: Interrupt Handler
 2528 05f6 7E A6                   		push.l	r6
 2529                             	.LCFI325:
 2530 05f8 EF 06                   		mov.L	r0, r6
 2531                             	.LCFI326:
 2532                             		.loc 1 711 0
 2533 05fa 7E B6                   		pop	r6
 2534 05fc 7F 95                   		rte
 2535                             	.LFE162:
 2537                             		.global	_INT_Excep_RIIC0_ICRXI0
 2539                             	_INT_Excep_RIIC0_ICRXI0:
 2540                             	.LFB163:
 712:../src/interrupt_handlers.c **** 
 713:../src/interrupt_handlers.c **** //;0x03DC  RIIC0_ICRXI0
 714:../src/interrupt_handlers.c **** void  INT_Excep_RIIC0_ICRXI0(void){ }
 2541                             		.loc 1 714 0
 2542                             		; Note: Interrupt Handler
 2543 05fe 7E A6                   		push.l	r6
 2544                             	.LCFI327:
 2545 0600 EF 06                   		mov.L	r0, r6
 2546                             	.LCFI328:
 2547                             		.loc 1 714 0
 2548 0602 7E B6                   		pop	r6
 2549 0604 7F 95                   		rte
 2550                             	.LFE163:
 2552                             		.global	_INT_Excep_RIIC0_ICTXI0
 2554                             	_INT_Excep_RIIC0_ICTXI0:
 2555                             	.LFB164:
 715:../src/interrupt_handlers.c **** 
 716:../src/interrupt_handlers.c **** //;0x03E0  RIIC0_ICTXI0
 717:../src/interrupt_handlers.c **** void  INT_Excep_RIIC0_ICTXI0(void){ }
 2556                             		.loc 1 717 0
 2557                             		; Note: Interrupt Handler
 2558 0606 7E A6                   		push.l	r6
 2559                             	.LCFI329:
 2560 0608 EF 06                   		mov.L	r0, r6
 2561                             	.LCFI330:
 2562                             		.loc 1 717 0
 2563 060a 7E B6                   		pop	r6
 2564 060c 7F 95                   		rte
 2565                             	.LFE164:
 2567                             		.global	_INT_Excep_RIIC0_ICTEI0
 2569                             	_INT_Excep_RIIC0_ICTEI0:
 2570                             	.LFB165:
 718:../src/interrupt_handlers.c **** 
 719:../src/interrupt_handlers.c **** //;0x03E4  RIIC0_ICTEI0
 720:../src/interrupt_handlers.c **** void  INT_Excep_RIIC0_ICTEI0(void){ }
 2571                             		.loc 1 720 0
 2572                             		; Note: Interrupt Handler
 2573 060e 7E A6                   		push.l	r6
 2574                             	.LCFI331:
 2575 0610 EF 06                   		mov.L	r0, r6
 2576                             	.LCFI332:
 2577                             		.loc 1 720 0
 2578 0612 7E B6                   		pop	r6
 2579 0614 7F 95                   		rte
 2580                             	.LFE165:
 2582                             		.global	_INT_Excep_RIIC1_ICEEI1
 2584                             	_INT_Excep_RIIC1_ICEEI1:
 2585                             	.LFB166:
 721:../src/interrupt_handlers.c **** 
 722:../src/interrupt_handlers.c **** //;0x03E8  RIIC1_ICEEI1
 723:../src/interrupt_handlers.c **** void  INT_Excep_RIIC1_ICEEI1(void){ }
 2586                             		.loc 1 723 0
 2587                             		; Note: Interrupt Handler
 2588 0616 7E A6                   		push.l	r6
 2589                             	.LCFI333:
 2590 0618 EF 06                   		mov.L	r0, r6
 2591                             	.LCFI334:
 2592                             		.loc 1 723 0
 2593 061a 7E B6                   		pop	r6
 2594 061c 7F 95                   		rte
 2595                             	.LFE166:
 2597                             		.global	_INT_Excep_RIIC1_ICRXI1
 2599                             	_INT_Excep_RIIC1_ICRXI1:
 2600                             	.LFB167:
 724:../src/interrupt_handlers.c **** 
 725:../src/interrupt_handlers.c **** //;0x03EC  RIIC1_ICRXI1
 726:../src/interrupt_handlers.c **** void  INT_Excep_RIIC1_ICRXI1(void){ }
 2601                             		.loc 1 726 0
 2602                             		; Note: Interrupt Handler
 2603 061e 7E A6                   		push.l	r6
 2604                             	.LCFI335:
 2605 0620 EF 06                   		mov.L	r0, r6
 2606                             	.LCFI336:
 2607                             		.loc 1 726 0
 2608 0622 7E B6                   		pop	r6
 2609 0624 7F 95                   		rte
 2610                             	.LFE167:
 2612                             		.global	_INT_Excep_RIIC1_ICTXI1
 2614                             	_INT_Excep_RIIC1_ICTXI1:
 2615                             	.LFB168:
 727:../src/interrupt_handlers.c **** 
 728:../src/interrupt_handlers.c **** //;0x03F0  RIIC1_ICTXI1
 729:../src/interrupt_handlers.c **** void  INT_Excep_RIIC1_ICTXI1(void){ }
 2616                             		.loc 1 729 0
 2617                             		; Note: Interrupt Handler
 2618 0626 7E A6                   		push.l	r6
 2619                             	.LCFI337:
 2620 0628 EF 06                   		mov.L	r0, r6
 2621                             	.LCFI338:
 2622                             		.loc 1 729 0
 2623 062a 7E B6                   		pop	r6
 2624 062c 7F 95                   		rte
 2625                             	.LFE168:
 2627                             		.global	_INT_Excep_RIIC1_ICTEI1
 2629                             	_INT_Excep_RIIC1_ICTEI1:
 2630                             	.LFB169:
 730:../src/interrupt_handlers.c **** 
 731:../src/interrupt_handlers.c **** //;0x03F4  RIIC1_ICTEI1
 732:../src/interrupt_handlers.c **** void  INT_Excep_RIIC1_ICTEI1(void){ }
 2631                             		.loc 1 732 0
 2632                             		; Note: Interrupt Handler
 2633 062e 7E A6                   		push.l	r6
 2634                             	.LCFI339:
 2635 0630 EF 06                   		mov.L	r0, r6
 2636                             	.LCFI340:
 2637                             		.loc 1 732 0
 2638 0632 7E B6                   		pop	r6
 2639 0634 7F 95                   		rte
 2640                             	.LFE169:
 5738                             	.Letext0:
 5739                             		.file 2 "../src/iodefine.h"
 5740                             		.file 3 "../src/rxserial.h"
